
beq.elf:     file format elf32-littleriscv


Disassembly of section .text.init:

10000000 <_start>:
10000000:	0040006f          	j	10000004 <reset_vector>

10000004 <reset_vector>:
10000004:	51e05073          	csrwi	0x51e,0
10000008:	00000193          	li	x3,0

1000000c <test_2>:
1000000c:	00200193          	li	x3,2
10000010:	00000093          	li	x1,0
10000014:	00000113          	li	x2,0
10000018:	00208663          	beq	x1,x2,10000024 <test_2+0x18>
1000001c:	2a301863          	bne	x0,x3,100002cc <fail>
10000020:	00301663          	bne	x0,x3,1000002c <test_3>
10000024:	fe208ee3          	beq	x1,x2,10000020 <test_2+0x14>
10000028:	2a301263          	bne	x0,x3,100002cc <fail>

1000002c <test_3>:
1000002c:	00300193          	li	x3,3
10000030:	00100093          	li	x1,1
10000034:	00100113          	li	x2,1
10000038:	00208663          	beq	x1,x2,10000044 <test_3+0x18>
1000003c:	28301863          	bne	x0,x3,100002cc <fail>
10000040:	00301663          	bne	x0,x3,1000004c <test_4>
10000044:	fe208ee3          	beq	x1,x2,10000040 <test_3+0x14>
10000048:	28301263          	bne	x0,x3,100002cc <fail>

1000004c <test_4>:
1000004c:	00400193          	li	x3,4
10000050:	fff00093          	li	x1,-1
10000054:	fff00113          	li	x2,-1
10000058:	00208663          	beq	x1,x2,10000064 <test_4+0x18>
1000005c:	26301863          	bne	x0,x3,100002cc <fail>
10000060:	00301663          	bne	x0,x3,1000006c <test_5>
10000064:	fe208ee3          	beq	x1,x2,10000060 <test_4+0x14>
10000068:	26301263          	bne	x0,x3,100002cc <fail>

1000006c <test_5>:
1000006c:	00500193          	li	x3,5
10000070:	00000093          	li	x1,0
10000074:	00100113          	li	x2,1
10000078:	00208463          	beq	x1,x2,10000080 <test_5+0x14>
1000007c:	00301463          	bne	x0,x3,10000084 <test_5+0x18>
10000080:	24301663          	bne	x0,x3,100002cc <fail>
10000084:	fe208ee3          	beq	x1,x2,10000080 <test_5+0x14>

10000088 <test_6>:
10000088:	00600193          	li	x3,6
1000008c:	00100093          	li	x1,1
10000090:	00000113          	li	x2,0
10000094:	00208463          	beq	x1,x2,1000009c <test_6+0x14>
10000098:	00301463          	bne	x0,x3,100000a0 <test_6+0x18>
1000009c:	22301863          	bne	x0,x3,100002cc <fail>
100000a0:	fe208ee3          	beq	x1,x2,1000009c <test_6+0x14>

100000a4 <test_7>:
100000a4:	00700193          	li	x3,7
100000a8:	fff00093          	li	x1,-1
100000ac:	00100113          	li	x2,1
100000b0:	00208463          	beq	x1,x2,100000b8 <test_7+0x14>
100000b4:	00301463          	bne	x0,x3,100000bc <test_7+0x18>
100000b8:	20301a63          	bne	x0,x3,100002cc <fail>
100000bc:	fe208ee3          	beq	x1,x2,100000b8 <test_7+0x14>

100000c0 <test_8>:
100000c0:	00800193          	li	x3,8
100000c4:	00100093          	li	x1,1
100000c8:	fff00113          	li	x2,-1
100000cc:	00208463          	beq	x1,x2,100000d4 <test_8+0x14>
100000d0:	00301463          	bne	x0,x3,100000d8 <test_8+0x18>
100000d4:	1e301c63          	bne	x0,x3,100002cc <fail>
100000d8:	fe208ee3          	beq	x1,x2,100000d4 <test_8+0x14>

100000dc <test_9>:
100000dc:	00900193          	li	x3,9
100000e0:	00000213          	li	x4,0
100000e4:	00000093          	li	x1,0
100000e8:	fff00113          	li	x2,-1
100000ec:	1e208063          	beq	x1,x2,100002cc <fail>
100000f0:	00120213          	addi	x4,x4,1 # 1 <_start-0xfffffff>
100000f4:	00200293          	li	x5,2
100000f8:	fe5216e3          	bne	x4,x5,100000e4 <test_9+0x8>

100000fc <test_10>:
100000fc:	00a00193          	li	x3,10
10000100:	00000213          	li	x4,0
10000104:	00000093          	li	x1,0
10000108:	fff00113          	li	x2,-1
1000010c:	00000013          	nop
10000110:	1a208e63          	beq	x1,x2,100002cc <fail>
10000114:	00120213          	addi	x4,x4,1 # 1 <_start-0xfffffff>
10000118:	00200293          	li	x5,2
1000011c:	fe5214e3          	bne	x4,x5,10000104 <test_10+0x8>

10000120 <test_11>:
10000120:	00b00193          	li	x3,11
10000124:	00000213          	li	x4,0
10000128:	00000093          	li	x1,0
1000012c:	fff00113          	li	x2,-1
10000130:	00000013          	nop
10000134:	00000013          	nop
10000138:	18208a63          	beq	x1,x2,100002cc <fail>
1000013c:	00120213          	addi	x4,x4,1 # 1 <_start-0xfffffff>
10000140:	00200293          	li	x5,2
10000144:	fe5212e3          	bne	x4,x5,10000128 <test_11+0x8>

10000148 <test_12>:
10000148:	00c00193          	li	x3,12
1000014c:	00000213          	li	x4,0
10000150:	00000093          	li	x1,0
10000154:	00000013          	nop
10000158:	fff00113          	li	x2,-1
1000015c:	16208863          	beq	x1,x2,100002cc <fail>
10000160:	00120213          	addi	x4,x4,1 # 1 <_start-0xfffffff>
10000164:	00200293          	li	x5,2
10000168:	fe5214e3          	bne	x4,x5,10000150 <test_12+0x8>

1000016c <test_13>:
1000016c:	00d00193          	li	x3,13
10000170:	00000213          	li	x4,0
10000174:	00000093          	li	x1,0
10000178:	00000013          	nop
1000017c:	fff00113          	li	x2,-1
10000180:	00000013          	nop
10000184:	14208463          	beq	x1,x2,100002cc <fail>
10000188:	00120213          	addi	x4,x4,1 # 1 <_start-0xfffffff>
1000018c:	00200293          	li	x5,2
10000190:	fe5212e3          	bne	x4,x5,10000174 <test_13+0x8>

10000194 <test_14>:
10000194:	00e00193          	li	x3,14
10000198:	00000213          	li	x4,0
1000019c:	00000093          	li	x1,0
100001a0:	00000013          	nop
100001a4:	00000013          	nop
100001a8:	fff00113          	li	x2,-1
100001ac:	12208063          	beq	x1,x2,100002cc <fail>
100001b0:	00120213          	addi	x4,x4,1 # 1 <_start-0xfffffff>
100001b4:	00200293          	li	x5,2
100001b8:	fe5212e3          	bne	x4,x5,1000019c <test_14+0x8>

100001bc <test_15>:
100001bc:	00f00193          	li	x3,15
100001c0:	00000213          	li	x4,0
100001c4:	00000093          	li	x1,0
100001c8:	fff00113          	li	x2,-1
100001cc:	10208063          	beq	x1,x2,100002cc <fail>
100001d0:	00120213          	addi	x4,x4,1 # 1 <_start-0xfffffff>
100001d4:	00200293          	li	x5,2
100001d8:	fe5216e3          	bne	x4,x5,100001c4 <test_15+0x8>

100001dc <test_16>:
100001dc:	01000193          	li	x3,16
100001e0:	00000213          	li	x4,0
100001e4:	00000093          	li	x1,0
100001e8:	fff00113          	li	x2,-1
100001ec:	00000013          	nop
100001f0:	0c208e63          	beq	x1,x2,100002cc <fail>
100001f4:	00120213          	addi	x4,x4,1 # 1 <_start-0xfffffff>
100001f8:	00200293          	li	x5,2
100001fc:	fe5214e3          	bne	x4,x5,100001e4 <test_16+0x8>

10000200 <test_17>:
10000200:	01100193          	li	x3,17
10000204:	00000213          	li	x4,0
10000208:	00000093          	li	x1,0
1000020c:	fff00113          	li	x2,-1
10000210:	00000013          	nop
10000214:	00000013          	nop
10000218:	0a208a63          	beq	x1,x2,100002cc <fail>
1000021c:	00120213          	addi	x4,x4,1 # 1 <_start-0xfffffff>
10000220:	00200293          	li	x5,2
10000224:	fe5212e3          	bne	x4,x5,10000208 <test_17+0x8>

10000228 <test_18>:
10000228:	01200193          	li	x3,18
1000022c:	00000213          	li	x4,0
10000230:	00000093          	li	x1,0
10000234:	00000013          	nop
10000238:	fff00113          	li	x2,-1
1000023c:	08208863          	beq	x1,x2,100002cc <fail>
10000240:	00120213          	addi	x4,x4,1 # 1 <_start-0xfffffff>
10000244:	00200293          	li	x5,2
10000248:	fe5214e3          	bne	x4,x5,10000230 <test_18+0x8>

1000024c <test_19>:
1000024c:	01300193          	li	x3,19
10000250:	00000213          	li	x4,0
10000254:	00000093          	li	x1,0
10000258:	00000013          	nop
1000025c:	fff00113          	li	x2,-1
10000260:	00000013          	nop
10000264:	06208463          	beq	x1,x2,100002cc <fail>
10000268:	00120213          	addi	x4,x4,1 # 1 <_start-0xfffffff>
1000026c:	00200293          	li	x5,2
10000270:	fe5212e3          	bne	x4,x5,10000254 <test_19+0x8>

10000274 <test_20>:
10000274:	01400193          	li	x3,20
10000278:	00000213          	li	x4,0
1000027c:	00000093          	li	x1,0
10000280:	00000013          	nop
10000284:	00000013          	nop
10000288:	fff00113          	li	x2,-1
1000028c:	04208063          	beq	x1,x2,100002cc <fail>
10000290:	00120213          	addi	x4,x4,1 # 1 <_start-0xfffffff>
10000294:	00200293          	li	x5,2
10000298:	fe5212e3          	bne	x4,x5,1000027c <test_20+0x8>

1000029c <test_21>:
1000029c:	00100093          	li	x1,1
100002a0:	00000a63          	beqz	x0,100002b4 <test_21+0x18>
100002a4:	00108093          	addi	x1,x1,1
100002a8:	00108093          	addi	x1,x1,1
100002ac:	00108093          	addi	x1,x1,1
100002b0:	00108093          	addi	x1,x1,1
100002b4:	00108093          	addi	x1,x1,1
100002b8:	00108093          	addi	x1,x1,1
100002bc:	00300393          	li	x7,3
100002c0:	01500193          	li	x3,21
100002c4:	00709463          	bne	x1,x7,100002cc <fail>
100002c8:	00301a63          	bne	x0,x3,100002dc <pass>

100002cc <fail>:
100002cc:	00119193          	slli	x3,x3,0x1
100002d0:	0011e193          	ori	x3,x3,1
100002d4:	51e19073          	csrw	0x51e,x3

100002d8 <f>:
100002d8:	0000006f          	j	100002d8 <f>

100002dc <pass>:
100002dc:	00100193          	li	x3,1
100002e0:	51e19073          	csrw	0x51e,x3

100002e4 <p>:
100002e4:	0000006f          	j	100002e4 <p>
100002e8:	c0001073          	unimp
	...

Disassembly of section .riscv.attributes:

00000000 <.riscv.attributes>:
   0:	1941                	addi	x18,x18,-16
   2:	0000                	unimp
   4:	7200                	flw	f8,32(x12)
   6:	7369                	lui	x6,0xffffa
   8:	01007663          	bgeu	x0,x16,14 <_start-0xfffffec>
   c:	0000000f          	fence	unknown,unknown
  10:	7205                	lui	x4,0xfffe1
  12:	3376                	fld	f6,376(x2)
  14:	6932                	flw	f18,12(x2)
  16:	7032                	flw	f0,44(x2)
  18:	0030                	addi	x12,x2,8
