
bge.elf:     file format elf32-littleriscv


Disassembly of section .text.init:

10000000 <_start>:
10000000:	0040006f          	j	10000004 <reset_vector>

10000004 <reset_vector>:
10000004:	51e05073          	csrwi	0x51e,0
10000008:	00000193          	li	x3,0

1000000c <test_2>:
1000000c:	00200193          	li	x3,2
10000010:	00000093          	li	x1,0
10000014:	00000113          	li	x2,0
10000018:	0020d663          	bge	x1,x2,10000024 <test_2+0x18>
1000001c:	30301863          	bne	x0,x3,1000032c <fail>
10000020:	00301663          	bne	x0,x3,1000002c <test_3>
10000024:	fe20dee3          	bge	x1,x2,10000020 <test_2+0x14>
10000028:	30301263          	bne	x0,x3,1000032c <fail>

1000002c <test_3>:
1000002c:	00300193          	li	x3,3
10000030:	00100093          	li	x1,1
10000034:	00100113          	li	x2,1
10000038:	0020d663          	bge	x1,x2,10000044 <test_3+0x18>
1000003c:	2e301863          	bne	x0,x3,1000032c <fail>
10000040:	00301663          	bne	x0,x3,1000004c <test_4>
10000044:	fe20dee3          	bge	x1,x2,10000040 <test_3+0x14>
10000048:	2e301263          	bne	x0,x3,1000032c <fail>

1000004c <test_4>:
1000004c:	00400193          	li	x3,4
10000050:	fff00093          	li	x1,-1
10000054:	fff00113          	li	x2,-1
10000058:	0020d663          	bge	x1,x2,10000064 <test_4+0x18>
1000005c:	2c301863          	bne	x0,x3,1000032c <fail>
10000060:	00301663          	bne	x0,x3,1000006c <test_5>
10000064:	fe20dee3          	bge	x1,x2,10000060 <test_4+0x14>
10000068:	2c301263          	bne	x0,x3,1000032c <fail>

1000006c <test_5>:
1000006c:	00500193          	li	x3,5
10000070:	00100093          	li	x1,1
10000074:	00000113          	li	x2,0
10000078:	0020d663          	bge	x1,x2,10000084 <test_5+0x18>
1000007c:	2a301863          	bne	x0,x3,1000032c <fail>
10000080:	00301663          	bne	x0,x3,1000008c <test_6>
10000084:	fe20dee3          	bge	x1,x2,10000080 <test_5+0x14>
10000088:	2a301263          	bne	x0,x3,1000032c <fail>

1000008c <test_6>:
1000008c:	00600193          	li	x3,6
10000090:	00100093          	li	x1,1
10000094:	fff00113          	li	x2,-1
10000098:	0020d663          	bge	x1,x2,100000a4 <test_6+0x18>
1000009c:	28301863          	bne	x0,x3,1000032c <fail>
100000a0:	00301663          	bne	x0,x3,100000ac <test_7>
100000a4:	fe20dee3          	bge	x1,x2,100000a0 <test_6+0x14>
100000a8:	28301263          	bne	x0,x3,1000032c <fail>

100000ac <test_7>:
100000ac:	00700193          	li	x3,7
100000b0:	fff00093          	li	x1,-1
100000b4:	ffe00113          	li	x2,-2
100000b8:	0020d663          	bge	x1,x2,100000c4 <test_7+0x18>
100000bc:	26301863          	bne	x0,x3,1000032c <fail>
100000c0:	00301663          	bne	x0,x3,100000cc <test_8>
100000c4:	fe20dee3          	bge	x1,x2,100000c0 <test_7+0x14>
100000c8:	26301263          	bne	x0,x3,1000032c <fail>

100000cc <test_8>:
100000cc:	00800193          	li	x3,8
100000d0:	00000093          	li	x1,0
100000d4:	00100113          	li	x2,1
100000d8:	0020d463          	bge	x1,x2,100000e0 <test_8+0x14>
100000dc:	00301463          	bne	x0,x3,100000e4 <test_8+0x18>
100000e0:	24301663          	bne	x0,x3,1000032c <fail>
100000e4:	fe20dee3          	bge	x1,x2,100000e0 <test_8+0x14>

100000e8 <test_9>:
100000e8:	00900193          	li	x3,9
100000ec:	fff00093          	li	x1,-1
100000f0:	00100113          	li	x2,1
100000f4:	0020d463          	bge	x1,x2,100000fc <test_9+0x14>
100000f8:	00301463          	bne	x0,x3,10000100 <test_9+0x18>
100000fc:	22301863          	bne	x0,x3,1000032c <fail>
10000100:	fe20dee3          	bge	x1,x2,100000fc <test_9+0x14>

10000104 <test_10>:
10000104:	00a00193          	li	x3,10
10000108:	ffe00093          	li	x1,-2
1000010c:	fff00113          	li	x2,-1
10000110:	0020d463          	bge	x1,x2,10000118 <test_10+0x14>
10000114:	00301463          	bne	x0,x3,1000011c <test_10+0x18>
10000118:	20301a63          	bne	x0,x3,1000032c <fail>
1000011c:	fe20dee3          	bge	x1,x2,10000118 <test_10+0x14>

10000120 <test_11>:
10000120:	00b00193          	li	x3,11
10000124:	ffe00093          	li	x1,-2
10000128:	00100113          	li	x2,1
1000012c:	0020d463          	bge	x1,x2,10000134 <test_11+0x14>
10000130:	00301463          	bne	x0,x3,10000138 <test_11+0x18>
10000134:	1e301c63          	bne	x0,x3,1000032c <fail>
10000138:	fe20dee3          	bge	x1,x2,10000134 <test_11+0x14>

1000013c <test_12>:
1000013c:	00c00193          	li	x3,12
10000140:	00000213          	li	x4,0
10000144:	fff00093          	li	x1,-1
10000148:	00000113          	li	x2,0
1000014c:	1e20d063          	bge	x1,x2,1000032c <fail>
10000150:	00120213          	addi	x4,x4,1 # 1 <_start-0xfffffff>
10000154:	00200293          	li	x5,2
10000158:	fe5216e3          	bne	x4,x5,10000144 <test_12+0x8>

1000015c <test_13>:
1000015c:	00d00193          	li	x3,13
10000160:	00000213          	li	x4,0
10000164:	fff00093          	li	x1,-1
10000168:	00000113          	li	x2,0
1000016c:	00000013          	nop
10000170:	1a20de63          	bge	x1,x2,1000032c <fail>
10000174:	00120213          	addi	x4,x4,1 # 1 <_start-0xfffffff>
10000178:	00200293          	li	x5,2
1000017c:	fe5214e3          	bne	x4,x5,10000164 <test_13+0x8>

10000180 <test_14>:
10000180:	00e00193          	li	x3,14
10000184:	00000213          	li	x4,0
10000188:	fff00093          	li	x1,-1
1000018c:	00000113          	li	x2,0
10000190:	00000013          	nop
10000194:	00000013          	nop
10000198:	1820da63          	bge	x1,x2,1000032c <fail>
1000019c:	00120213          	addi	x4,x4,1 # 1 <_start-0xfffffff>
100001a0:	00200293          	li	x5,2
100001a4:	fe5212e3          	bne	x4,x5,10000188 <test_14+0x8>

100001a8 <test_15>:
100001a8:	00f00193          	li	x3,15
100001ac:	00000213          	li	x4,0
100001b0:	fff00093          	li	x1,-1
100001b4:	00000013          	nop
100001b8:	00000113          	li	x2,0
100001bc:	1620d863          	bge	x1,x2,1000032c <fail>
100001c0:	00120213          	addi	x4,x4,1 # 1 <_start-0xfffffff>
100001c4:	00200293          	li	x5,2
100001c8:	fe5214e3          	bne	x4,x5,100001b0 <test_15+0x8>

100001cc <test_16>:
100001cc:	01000193          	li	x3,16
100001d0:	00000213          	li	x4,0
100001d4:	fff00093          	li	x1,-1
100001d8:	00000013          	nop
100001dc:	00000113          	li	x2,0
100001e0:	00000013          	nop
100001e4:	1420d463          	bge	x1,x2,1000032c <fail>
100001e8:	00120213          	addi	x4,x4,1 # 1 <_start-0xfffffff>
100001ec:	00200293          	li	x5,2
100001f0:	fe5212e3          	bne	x4,x5,100001d4 <test_16+0x8>

100001f4 <test_17>:
100001f4:	01100193          	li	x3,17
100001f8:	00000213          	li	x4,0
100001fc:	fff00093          	li	x1,-1
10000200:	00000013          	nop
10000204:	00000013          	nop
10000208:	00000113          	li	x2,0
1000020c:	1220d063          	bge	x1,x2,1000032c <fail>
10000210:	00120213          	addi	x4,x4,1 # 1 <_start-0xfffffff>
10000214:	00200293          	li	x5,2
10000218:	fe5212e3          	bne	x4,x5,100001fc <test_17+0x8>

1000021c <test_18>:
1000021c:	01200193          	li	x3,18
10000220:	00000213          	li	x4,0
10000224:	fff00093          	li	x1,-1
10000228:	00000113          	li	x2,0
1000022c:	1020d063          	bge	x1,x2,1000032c <fail>
10000230:	00120213          	addi	x4,x4,1 # 1 <_start-0xfffffff>
10000234:	00200293          	li	x5,2
10000238:	fe5216e3          	bne	x4,x5,10000224 <test_18+0x8>

1000023c <test_19>:
1000023c:	01300193          	li	x3,19
10000240:	00000213          	li	x4,0
10000244:	fff00093          	li	x1,-1
10000248:	00000113          	li	x2,0
1000024c:	00000013          	nop
10000250:	0c20de63          	bge	x1,x2,1000032c <fail>
10000254:	00120213          	addi	x4,x4,1 # 1 <_start-0xfffffff>
10000258:	00200293          	li	x5,2
1000025c:	fe5214e3          	bne	x4,x5,10000244 <test_19+0x8>

10000260 <test_20>:
10000260:	01400193          	li	x3,20
10000264:	00000213          	li	x4,0
10000268:	fff00093          	li	x1,-1
1000026c:	00000113          	li	x2,0
10000270:	00000013          	nop
10000274:	00000013          	nop
10000278:	0a20da63          	bge	x1,x2,1000032c <fail>
1000027c:	00120213          	addi	x4,x4,1 # 1 <_start-0xfffffff>
10000280:	00200293          	li	x5,2
10000284:	fe5212e3          	bne	x4,x5,10000268 <test_20+0x8>

10000288 <test_21>:
10000288:	01500193          	li	x3,21
1000028c:	00000213          	li	x4,0
10000290:	fff00093          	li	x1,-1
10000294:	00000013          	nop
10000298:	00000113          	li	x2,0
1000029c:	0820d863          	bge	x1,x2,1000032c <fail>
100002a0:	00120213          	addi	x4,x4,1 # 1 <_start-0xfffffff>
100002a4:	00200293          	li	x5,2
100002a8:	fe5214e3          	bne	x4,x5,10000290 <test_21+0x8>

100002ac <test_22>:
100002ac:	01600193          	li	x3,22
100002b0:	00000213          	li	x4,0
100002b4:	fff00093          	li	x1,-1
100002b8:	00000013          	nop
100002bc:	00000113          	li	x2,0
100002c0:	00000013          	nop
100002c4:	0620d463          	bge	x1,x2,1000032c <fail>
100002c8:	00120213          	addi	x4,x4,1 # 1 <_start-0xfffffff>
100002cc:	00200293          	li	x5,2
100002d0:	fe5212e3          	bne	x4,x5,100002b4 <test_22+0x8>

100002d4 <test_23>:
100002d4:	01700193          	li	x3,23
100002d8:	00000213          	li	x4,0
100002dc:	fff00093          	li	x1,-1
100002e0:	00000013          	nop
100002e4:	00000013          	nop
100002e8:	00000113          	li	x2,0
100002ec:	0420d063          	bge	x1,x2,1000032c <fail>
100002f0:	00120213          	addi	x4,x4,1 # 1 <_start-0xfffffff>
100002f4:	00200293          	li	x5,2
100002f8:	fe5212e3          	bne	x4,x5,100002dc <test_23+0x8>

100002fc <test_24>:
100002fc:	00100093          	li	x1,1
10000300:	0000da63          	bgez	x1,10000314 <test_24+0x18>
10000304:	00108093          	addi	x1,x1,1
10000308:	00108093          	addi	x1,x1,1
1000030c:	00108093          	addi	x1,x1,1
10000310:	00108093          	addi	x1,x1,1
10000314:	00108093          	addi	x1,x1,1
10000318:	00108093          	addi	x1,x1,1
1000031c:	00300393          	li	x7,3
10000320:	01800193          	li	x3,24
10000324:	00709463          	bne	x1,x7,1000032c <fail>
10000328:	00301a63          	bne	x0,x3,1000033c <pass>

1000032c <fail>:
1000032c:	00119193          	slli	x3,x3,0x1
10000330:	0011e193          	ori	x3,x3,1
10000334:	51e19073          	csrw	0x51e,x3

10000338 <f>:
10000338:	0000006f          	j	10000338 <f>

1000033c <pass>:
1000033c:	00100193          	li	x3,1
10000340:	51e19073          	csrw	0x51e,x3

10000344 <p>:
10000344:	0000006f          	j	10000344 <p>
10000348:	c0001073          	unimp
	...

Disassembly of section .riscv.attributes:

00000000 <.riscv.attributes>:
   0:	1941                	addi	x18,x18,-16
   2:	0000                	unimp
   4:	7200                	flw	f8,32(x12)
   6:	7369                	lui	x6,0xffffa
   8:	01007663          	bgeu	x0,x16,14 <_start-0xfffffec>
   c:	0000000f          	fence	unknown,unknown
  10:	7205                	lui	x4,0xfffe1
  12:	3376                	fld	f6,376(x2)
  14:	6932                	flw	f18,12(x2)
  16:	7032                	flw	f0,44(x2)
  18:	0030                	addi	x12,x2,8
