
jalr.elf:     file format elf32-littleriscv


Disassembly of section .text.init:

10000000 <_start>:
10000000:	0040006f          	j	10000004 <reset_vector>

10000004 <reset_vector>:
10000004:	51e05073          	csrwi	0x51e,0
10000008:	00000193          	li	x3,0

1000000c <test_2>:
1000000c:	00200193          	li	x3,2
10000010:	00000293          	li	x5,0
10000014:	00000317          	auipc	x6,0x0
10000018:	01030313          	addi	x6,x6,16 # 10000024 <target_2>
1000001c:	000302e7          	jalr	x5,x6

10000020 <linkaddr_2>:
10000020:	0e00006f          	j	10000100 <fail>

10000024 <target_2>:
10000024:	00000317          	auipc	x6,0x0
10000028:	ffc30313          	addi	x6,x6,-4 # 10000020 <linkaddr_2>
1000002c:	0c629a63          	bne	x5,x6,10000100 <fail>

10000030 <test_3>:
10000030:	00300193          	li	x3,3
10000034:	00000297          	auipc	x5,0x0
10000038:	01028293          	addi	x5,x5,16 # 10000044 <target_3>
1000003c:	000282e7          	jalr	x5,x5

10000040 <linkaddr_3>:
10000040:	0c00006f          	j	10000100 <fail>

10000044 <target_3>:
10000044:	00000317          	auipc	x6,0x0
10000048:	ffc30313          	addi	x6,x6,-4 # 10000040 <linkaddr_3>
1000004c:	0a629a63          	bne	x5,x6,10000100 <fail>

10000050 <test_4>:
10000050:	00400193          	li	x3,4
10000054:	00000213          	li	x4,0
10000058:	00000317          	auipc	x6,0x0
1000005c:	01030313          	addi	x6,x6,16 # 10000068 <test_4+0x18>
10000060:	000306e7          	jalr	x13,x6
10000064:	08301e63          	bne	x0,x3,10000100 <fail>
10000068:	00120213          	addi	x4,x4,1 # 1 <_start-0xfffffff>
1000006c:	00200293          	li	x5,2
10000070:	fe5214e3          	bne	x4,x5,10000058 <test_4+0x8>

10000074 <test_5>:
10000074:	00500193          	li	x3,5
10000078:	00000213          	li	x4,0
1000007c:	00000317          	auipc	x6,0x0
10000080:	01430313          	addi	x6,x6,20 # 10000090 <test_5+0x1c>
10000084:	00000013          	nop
10000088:	000306e7          	jalr	x13,x6
1000008c:	06301a63          	bne	x0,x3,10000100 <fail>
10000090:	00120213          	addi	x4,x4,1 # 1 <_start-0xfffffff>
10000094:	00200293          	li	x5,2
10000098:	fe5212e3          	bne	x4,x5,1000007c <test_5+0x8>

1000009c <test_6>:
1000009c:	00600193          	li	x3,6
100000a0:	00000213          	li	x4,0
100000a4:	00000317          	auipc	x6,0x0
100000a8:	01830313          	addi	x6,x6,24 # 100000bc <test_6+0x20>
100000ac:	00000013          	nop
100000b0:	00000013          	nop
100000b4:	000306e7          	jalr	x13,x6
100000b8:	04301463          	bne	x0,x3,10000100 <fail>
100000bc:	00120213          	addi	x4,x4,1 # 1 <_start-0xfffffff>
100000c0:	00200293          	li	x5,2
100000c4:	fe5210e3          	bne	x4,x5,100000a4 <test_6+0x8>

100000c8 <test_7>:
100000c8:	00100293          	li	x5,1
100000cc:	00000317          	auipc	x6,0x0
100000d0:	01c30313          	addi	x6,x6,28 # 100000e8 <test_7+0x20>
100000d4:	ffc30067          	jr	-4(x6)
100000d8:	00128293          	addi	x5,x5,1
100000dc:	00128293          	addi	x5,x5,1
100000e0:	00128293          	addi	x5,x5,1
100000e4:	00128293          	addi	x5,x5,1
100000e8:	00128293          	addi	x5,x5,1
100000ec:	00128293          	addi	x5,x5,1
100000f0:	00400393          	li	x7,4
100000f4:	00700193          	li	x3,7
100000f8:	00729463          	bne	x5,x7,10000100 <fail>
100000fc:	00301a63          	bne	x0,x3,10000110 <pass>

10000100 <fail>:
10000100:	00119193          	slli	x3,x3,0x1
10000104:	0011e193          	ori	x3,x3,1
10000108:	51e19073          	csrw	0x51e,x3

1000010c <f>:
1000010c:	0000006f          	j	1000010c <f>

10000110 <pass>:
10000110:	00100193          	li	x3,1
10000114:	51e19073          	csrw	0x51e,x3

10000118 <p>:
10000118:	0000006f          	j	10000118 <p>
1000011c:	c0001073          	unimp
	...

Disassembly of section .riscv.attributes:

00000000 <.riscv.attributes>:
   0:	1941                	addi	x18,x18,-16
   2:	0000                	unimp
   4:	7200                	flw	f8,32(x12)
   6:	7369                	lui	x6,0xffffa
   8:	01007663          	bgeu	x0,x16,14 <_start-0xfffffec>
   c:	0000000f          	fence	unknown,unknown
  10:	7205                	lui	x4,0xfffe1
  12:	3376                	fld	f6,376(x2)
  14:	6932                	flw	f18,12(x2)
  16:	7032                	flw	f0,44(x2)
  18:	0030                	addi	x12,x2,8
