
lh.elf:     file format elf32-littleriscv


Disassembly of section .text.init:

10000000 <_start>:
10000000:	0040006f          	j	10000004 <reset_vector>

10000004 <reset_vector>:
10000004:	51e05073          	csrwi	0x51e,0
10000008:	00000193          	li	x3,0

1000000c <test_2>:
1000000c:	00001097          	auipc	x1,0x1
10000010:	ff408093          	addi	x1,x1,-12 # 10001000 <begin_signature>
10000014:	00009703          	lh	x14,0(x1)
10000018:	0ff00393          	li	x7,255
1000001c:	00200193          	li	x3,2
10000020:	24771c63          	bne	x14,x7,10000278 <fail>

10000024 <test_3>:
10000024:	00001097          	auipc	x1,0x1
10000028:	fdc08093          	addi	x1,x1,-36 # 10001000 <begin_signature>
1000002c:	00209703          	lh	x14,2(x1)
10000030:	f0000393          	li	x7,-256
10000034:	00300193          	li	x3,3
10000038:	24771063          	bne	x14,x7,10000278 <fail>

1000003c <test_4>:
1000003c:	00001097          	auipc	x1,0x1
10000040:	fc408093          	addi	x1,x1,-60 # 10001000 <begin_signature>
10000044:	00409703          	lh	x14,4(x1)
10000048:	000013b7          	lui	x7,0x1
1000004c:	ff038393          	addi	x7,x7,-16 # ff0 <_start-0xffff010>
10000050:	00400193          	li	x3,4
10000054:	22771263          	bne	x14,x7,10000278 <fail>

10000058 <test_5>:
10000058:	00001097          	auipc	x1,0x1
1000005c:	fa808093          	addi	x1,x1,-88 # 10001000 <begin_signature>
10000060:	00609703          	lh	x14,6(x1)
10000064:	fffff3b7          	lui	x7,0xfffff
10000068:	00f38393          	addi	x7,x7,15 # fffff00f <_end+0xefffdfff>
1000006c:	00500193          	li	x3,5
10000070:	20771463          	bne	x14,x7,10000278 <fail>

10000074 <test_6>:
10000074:	00001097          	auipc	x1,0x1
10000078:	f9208093          	addi	x1,x1,-110 # 10001006 <tdat4>
1000007c:	ffa09703          	lh	x14,-6(x1)
10000080:	0ff00393          	li	x7,255
10000084:	00600193          	li	x3,6
10000088:	1e771863          	bne	x14,x7,10000278 <fail>

1000008c <test_7>:
1000008c:	00001097          	auipc	x1,0x1
10000090:	f7a08093          	addi	x1,x1,-134 # 10001006 <tdat4>
10000094:	ffc09703          	lh	x14,-4(x1)
10000098:	f0000393          	li	x7,-256
1000009c:	00700193          	li	x3,7
100000a0:	1c771c63          	bne	x14,x7,10000278 <fail>

100000a4 <test_8>:
100000a4:	00001097          	auipc	x1,0x1
100000a8:	f6208093          	addi	x1,x1,-158 # 10001006 <tdat4>
100000ac:	ffe09703          	lh	x14,-2(x1)
100000b0:	000013b7          	lui	x7,0x1
100000b4:	ff038393          	addi	x7,x7,-16 # ff0 <_start-0xffff010>
100000b8:	00800193          	li	x3,8
100000bc:	1a771e63          	bne	x14,x7,10000278 <fail>

100000c0 <test_9>:
100000c0:	00001097          	auipc	x1,0x1
100000c4:	f4608093          	addi	x1,x1,-186 # 10001006 <tdat4>
100000c8:	00009703          	lh	x14,0(x1)
100000cc:	fffff3b7          	lui	x7,0xfffff
100000d0:	00f38393          	addi	x7,x7,15 # fffff00f <_end+0xefffdfff>
100000d4:	00900193          	li	x3,9
100000d8:	1a771063          	bne	x14,x7,10000278 <fail>

100000dc <test_10>:
100000dc:	00001097          	auipc	x1,0x1
100000e0:	f2408093          	addi	x1,x1,-220 # 10001000 <begin_signature>
100000e4:	fe008093          	addi	x1,x1,-32
100000e8:	02009283          	lh	x5,32(x1)
100000ec:	0ff00393          	li	x7,255
100000f0:	00a00193          	li	x3,10
100000f4:	18729263          	bne	x5,x7,10000278 <fail>

100000f8 <test_11>:
100000f8:	00001097          	auipc	x1,0x1
100000fc:	f0808093          	addi	x1,x1,-248 # 10001000 <begin_signature>
10000100:	ffb08093          	addi	x1,x1,-5
10000104:	00709283          	lh	x5,7(x1)
10000108:	f0000393          	li	x7,-256
1000010c:	00b00193          	li	x3,11
10000110:	16729463          	bne	x5,x7,10000278 <fail>

10000114 <test_12>:
10000114:	00c00193          	li	x3,12
10000118:	00000213          	li	x4,0
1000011c:	00001097          	auipc	x1,0x1
10000120:	ee608093          	addi	x1,x1,-282 # 10001002 <tdat2>
10000124:	00209703          	lh	x14,2(x1)
10000128:	00070313          	mv	x6,x14
1000012c:	000013b7          	lui	x7,0x1
10000130:	ff038393          	addi	x7,x7,-16 # ff0 <_start-0xffff010>
10000134:	14731263          	bne	x6,x7,10000278 <fail>
10000138:	00120213          	addi	x4,x4,1 # 1 <_start-0xfffffff>
1000013c:	00200293          	li	x5,2
10000140:	fc521ee3          	bne	x4,x5,1000011c <test_12+0x8>

10000144 <test_13>:
10000144:	00d00193          	li	x3,13
10000148:	00000213          	li	x4,0
1000014c:	00001097          	auipc	x1,0x1
10000150:	eb808093          	addi	x1,x1,-328 # 10001004 <tdat3>
10000154:	00209703          	lh	x14,2(x1)
10000158:	00000013          	nop
1000015c:	00070313          	mv	x6,x14
10000160:	fffff3b7          	lui	x7,0xfffff
10000164:	00f38393          	addi	x7,x7,15 # fffff00f <_end+0xefffdfff>
10000168:	10731863          	bne	x6,x7,10000278 <fail>
1000016c:	00120213          	addi	x4,x4,1 # 1 <_start-0xfffffff>
10000170:	00200293          	li	x5,2
10000174:	fc521ce3          	bne	x4,x5,1000014c <test_13+0x8>

10000178 <test_14>:
10000178:	00e00193          	li	x3,14
1000017c:	00000213          	li	x4,0
10000180:	00001097          	auipc	x1,0x1
10000184:	e8008093          	addi	x1,x1,-384 # 10001000 <begin_signature>
10000188:	00209703          	lh	x14,2(x1)
1000018c:	00000013          	nop
10000190:	00000013          	nop
10000194:	00070313          	mv	x6,x14
10000198:	f0000393          	li	x7,-256
1000019c:	0c731e63          	bne	x6,x7,10000278 <fail>
100001a0:	00120213          	addi	x4,x4,1 # 1 <_start-0xfffffff>
100001a4:	00200293          	li	x5,2
100001a8:	fc521ce3          	bne	x4,x5,10000180 <test_14+0x8>

100001ac <test_15>:
100001ac:	00f00193          	li	x3,15
100001b0:	00000213          	li	x4,0
100001b4:	00001097          	auipc	x1,0x1
100001b8:	e4e08093          	addi	x1,x1,-434 # 10001002 <tdat2>
100001bc:	00209703          	lh	x14,2(x1)
100001c0:	000013b7          	lui	x7,0x1
100001c4:	ff038393          	addi	x7,x7,-16 # ff0 <_start-0xffff010>
100001c8:	0a771863          	bne	x14,x7,10000278 <fail>
100001cc:	00120213          	addi	x4,x4,1 # 1 <_start-0xfffffff>
100001d0:	00200293          	li	x5,2
100001d4:	fe5210e3          	bne	x4,x5,100001b4 <test_15+0x8>

100001d8 <test_16>:
100001d8:	01000193          	li	x3,16
100001dc:	00000213          	li	x4,0
100001e0:	00001097          	auipc	x1,0x1
100001e4:	e2408093          	addi	x1,x1,-476 # 10001004 <tdat3>
100001e8:	00000013          	nop
100001ec:	00209703          	lh	x14,2(x1)
100001f0:	fffff3b7          	lui	x7,0xfffff
100001f4:	00f38393          	addi	x7,x7,15 # fffff00f <_end+0xefffdfff>
100001f8:	08771063          	bne	x14,x7,10000278 <fail>
100001fc:	00120213          	addi	x4,x4,1 # 1 <_start-0xfffffff>
10000200:	00200293          	li	x5,2
10000204:	fc521ee3          	bne	x4,x5,100001e0 <test_16+0x8>

10000208 <test_17>:
10000208:	01100193          	li	x3,17
1000020c:	00000213          	li	x4,0
10000210:	00001097          	auipc	x1,0x1
10000214:	df008093          	addi	x1,x1,-528 # 10001000 <begin_signature>
10000218:	00000013          	nop
1000021c:	00000013          	nop
10000220:	00209703          	lh	x14,2(x1)
10000224:	f0000393          	li	x7,-256
10000228:	04771863          	bne	x14,x7,10000278 <fail>
1000022c:	00120213          	addi	x4,x4,1 # 1 <_start-0xfffffff>
10000230:	00200293          	li	x5,2
10000234:	fc521ee3          	bne	x4,x5,10000210 <test_17+0x8>

10000238 <test_18>:
10000238:	00001297          	auipc	x5,0x1
1000023c:	dc828293          	addi	x5,x5,-568 # 10001000 <begin_signature>
10000240:	00029103          	lh	x2,0(x5)
10000244:	00200113          	li	x2,2
10000248:	00200393          	li	x7,2
1000024c:	01200193          	li	x3,18
10000250:	02711463          	bne	x2,x7,10000278 <fail>

10000254 <test_19>:
10000254:	00001297          	auipc	x5,0x1
10000258:	dac28293          	addi	x5,x5,-596 # 10001000 <begin_signature>
1000025c:	00029103          	lh	x2,0(x5)
10000260:	00000013          	nop
10000264:	00200113          	li	x2,2
10000268:	00200393          	li	x7,2
1000026c:	01300193          	li	x3,19
10000270:	00711463          	bne	x2,x7,10000278 <fail>
10000274:	00301a63          	bne	x0,x3,10000288 <pass>

10000278 <fail>:
10000278:	00119193          	slli	x3,x3,0x1
1000027c:	0011e193          	ori	x3,x3,1
10000280:	51e19073          	csrw	0x51e,x3

10000284 <f>:
10000284:	0000006f          	j	10000284 <f>

10000288 <pass>:
10000288:	00100193          	li	x3,1
1000028c:	51e19073          	csrw	0x51e,x3

10000290 <p>:
10000290:	0000006f          	j	10000290 <p>
10000294:	c0001073          	unimp
	...

Disassembly of section .data:

10001000 <begin_signature>:
10001000:	00ff                	0xff

10001002 <tdat2>:
10001002:	ff00                	fsw	f8,56(x14)

10001004 <tdat3>:
10001004:	0ff0                	addi	x12,x2,988

10001006 <tdat4>:
10001006:	0000f00f          	0xf00f
1000100a:	0000                	unimp
1000100c:	0000                	unimp
	...

Disassembly of section .riscv.attributes:

00000000 <.riscv.attributes>:
   0:	1941                	addi	x18,x18,-16
   2:	0000                	unimp
   4:	7200                	flw	f8,32(x12)
   6:	7369                	lui	x6,0xffffa
   8:	01007663          	bgeu	x0,x16,14 <_start-0xfffffec>
   c:	0000000f          	fence	unknown,unknown
  10:	7205                	lui	x4,0xfffe1
  12:	3376                	fld	f6,376(x2)
  14:	6932                	flw	f18,12(x2)
  16:	7032                	flw	f0,44(x2)
  18:	0030                	addi	x12,x2,8
