
sll.elf:     file format elf32-littleriscv


Disassembly of section .text.init:

10000000 <_start>:
10000000:	0040006f          	j	10000004 <reset_vector>

10000004 <reset_vector>:
10000004:	51e05073          	csrwi	0x51e,0
10000008:	00000193          	li	x3,0

1000000c <test_2>:
1000000c:	00100093          	li	x1,1
10000010:	00000113          	li	x2,0
10000014:	00209733          	sll	x14,x1,x2
10000018:	00100393          	li	x7,1
1000001c:	00200193          	li	x3,2
10000020:	52771e63          	bne	x14,x7,1000055c <fail>

10000024 <test_3>:
10000024:	00100093          	li	x1,1
10000028:	00100113          	li	x2,1
1000002c:	00209733          	sll	x14,x1,x2
10000030:	00200393          	li	x7,2
10000034:	00300193          	li	x3,3
10000038:	52771263          	bne	x14,x7,1000055c <fail>

1000003c <test_4>:
1000003c:	00100093          	li	x1,1
10000040:	00700113          	li	x2,7
10000044:	00209733          	sll	x14,x1,x2
10000048:	08000393          	li	x7,128
1000004c:	00400193          	li	x3,4
10000050:	50771663          	bne	x14,x7,1000055c <fail>

10000054 <test_5>:
10000054:	00100093          	li	x1,1
10000058:	00e00113          	li	x2,14
1000005c:	00209733          	sll	x14,x1,x2
10000060:	000043b7          	lui	x7,0x4
10000064:	00500193          	li	x3,5
10000068:	4e771a63          	bne	x14,x7,1000055c <fail>

1000006c <test_6>:
1000006c:	00100093          	li	x1,1
10000070:	01f00113          	li	x2,31
10000074:	00209733          	sll	x14,x1,x2
10000078:	800003b7          	lui	x7,0x80000
1000007c:	00600193          	li	x3,6
10000080:	4c771e63          	bne	x14,x7,1000055c <fail>

10000084 <test_7>:
10000084:	fff00093          	li	x1,-1
10000088:	00000113          	li	x2,0
1000008c:	00209733          	sll	x14,x1,x2
10000090:	fff00393          	li	x7,-1
10000094:	00700193          	li	x3,7
10000098:	4c771263          	bne	x14,x7,1000055c <fail>

1000009c <test_8>:
1000009c:	fff00093          	li	x1,-1
100000a0:	00100113          	li	x2,1
100000a4:	00209733          	sll	x14,x1,x2
100000a8:	ffe00393          	li	x7,-2
100000ac:	00800193          	li	x3,8
100000b0:	4a771663          	bne	x14,x7,1000055c <fail>

100000b4 <test_9>:
100000b4:	fff00093          	li	x1,-1
100000b8:	00700113          	li	x2,7
100000bc:	00209733          	sll	x14,x1,x2
100000c0:	f8000393          	li	x7,-128
100000c4:	00900193          	li	x3,9
100000c8:	48771a63          	bne	x14,x7,1000055c <fail>

100000cc <test_10>:
100000cc:	fff00093          	li	x1,-1
100000d0:	00e00113          	li	x2,14
100000d4:	00209733          	sll	x14,x1,x2
100000d8:	ffffc3b7          	lui	x7,0xffffc
100000dc:	00a00193          	li	x3,10
100000e0:	46771e63          	bne	x14,x7,1000055c <fail>

100000e4 <test_11>:
100000e4:	fff00093          	li	x1,-1
100000e8:	01f00113          	li	x2,31
100000ec:	00209733          	sll	x14,x1,x2
100000f0:	800003b7          	lui	x7,0x80000
100000f4:	00b00193          	li	x3,11
100000f8:	46771263          	bne	x14,x7,1000055c <fail>

100000fc <test_12>:
100000fc:	212120b7          	lui	x1,0x21212
10000100:	12108093          	addi	x1,x1,289 # 21212121 <_end+0x11211121>
10000104:	00000113          	li	x2,0
10000108:	00209733          	sll	x14,x1,x2
1000010c:	212123b7          	lui	x7,0x21212
10000110:	12138393          	addi	x7,x7,289 # 21212121 <_end+0x11211121>
10000114:	00c00193          	li	x3,12
10000118:	44771263          	bne	x14,x7,1000055c <fail>

1000011c <test_13>:
1000011c:	212120b7          	lui	x1,0x21212
10000120:	12108093          	addi	x1,x1,289 # 21212121 <_end+0x11211121>
10000124:	00100113          	li	x2,1
10000128:	00209733          	sll	x14,x1,x2
1000012c:	424243b7          	lui	x7,0x42424
10000130:	24238393          	addi	x7,x7,578 # 42424242 <_end+0x32423242>
10000134:	00d00193          	li	x3,13
10000138:	42771263          	bne	x14,x7,1000055c <fail>

1000013c <test_14>:
1000013c:	212120b7          	lui	x1,0x21212
10000140:	12108093          	addi	x1,x1,289 # 21212121 <_end+0x11211121>
10000144:	00700113          	li	x2,7
10000148:	00209733          	sll	x14,x1,x2
1000014c:	909093b7          	lui	x7,0x90909
10000150:	08038393          	addi	x7,x7,128 # 90909080 <_end+0x80908080>
10000154:	00e00193          	li	x3,14
10000158:	40771263          	bne	x14,x7,1000055c <fail>

1000015c <test_15>:
1000015c:	212120b7          	lui	x1,0x21212
10000160:	12108093          	addi	x1,x1,289 # 21212121 <_end+0x11211121>
10000164:	00e00113          	li	x2,14
10000168:	00209733          	sll	x14,x1,x2
1000016c:	484843b7          	lui	x7,0x48484
10000170:	00f00193          	li	x3,15
10000174:	3e771463          	bne	x14,x7,1000055c <fail>

10000178 <test_16>:
10000178:	212120b7          	lui	x1,0x21212
1000017c:	12108093          	addi	x1,x1,289 # 21212121 <_end+0x11211121>
10000180:	01f00113          	li	x2,31
10000184:	00209733          	sll	x14,x1,x2
10000188:	800003b7          	lui	x7,0x80000
1000018c:	01000193          	li	x3,16
10000190:	3c771663          	bne	x14,x7,1000055c <fail>

10000194 <test_17>:
10000194:	212120b7          	lui	x1,0x21212
10000198:	12108093          	addi	x1,x1,289 # 21212121 <_end+0x11211121>
1000019c:	fc000113          	li	x2,-64
100001a0:	00209733          	sll	x14,x1,x2
100001a4:	212123b7          	lui	x7,0x21212
100001a8:	12138393          	addi	x7,x7,289 # 21212121 <_end+0x11211121>
100001ac:	01100193          	li	x3,17
100001b0:	3a771663          	bne	x14,x7,1000055c <fail>

100001b4 <test_18>:
100001b4:	212120b7          	lui	x1,0x21212
100001b8:	12108093          	addi	x1,x1,289 # 21212121 <_end+0x11211121>
100001bc:	fc100113          	li	x2,-63
100001c0:	00209733          	sll	x14,x1,x2
100001c4:	424243b7          	lui	x7,0x42424
100001c8:	24238393          	addi	x7,x7,578 # 42424242 <_end+0x32423242>
100001cc:	01200193          	li	x3,18
100001d0:	38771663          	bne	x14,x7,1000055c <fail>

100001d4 <test_19>:
100001d4:	212120b7          	lui	x1,0x21212
100001d8:	12108093          	addi	x1,x1,289 # 21212121 <_end+0x11211121>
100001dc:	fc700113          	li	x2,-57
100001e0:	00209733          	sll	x14,x1,x2
100001e4:	909093b7          	lui	x7,0x90909
100001e8:	08038393          	addi	x7,x7,128 # 90909080 <_end+0x80908080>
100001ec:	01300193          	li	x3,19
100001f0:	36771663          	bne	x14,x7,1000055c <fail>

100001f4 <test_20>:
100001f4:	212120b7          	lui	x1,0x21212
100001f8:	12108093          	addi	x1,x1,289 # 21212121 <_end+0x11211121>
100001fc:	fce00113          	li	x2,-50
10000200:	00209733          	sll	x14,x1,x2
10000204:	484843b7          	lui	x7,0x48484
10000208:	01400193          	li	x3,20
1000020c:	34771863          	bne	x14,x7,1000055c <fail>

10000210 <test_22>:
10000210:	00100093          	li	x1,1
10000214:	00700113          	li	x2,7
10000218:	002090b3          	sll	x1,x1,x2
1000021c:	08000393          	li	x7,128
10000220:	01600193          	li	x3,22
10000224:	32709c63          	bne	x1,x7,1000055c <fail>

10000228 <test_23>:
10000228:	00100093          	li	x1,1
1000022c:	00e00113          	li	x2,14
10000230:	00209133          	sll	x2,x1,x2
10000234:	000043b7          	lui	x7,0x4
10000238:	01700193          	li	x3,23
1000023c:	32711063          	bne	x2,x7,1000055c <fail>

10000240 <test_24>:
10000240:	00300093          	li	x1,3
10000244:	001090b3          	sll	x1,x1,x1
10000248:	01800393          	li	x7,24
1000024c:	01800193          	li	x3,24
10000250:	30709663          	bne	x1,x7,1000055c <fail>

10000254 <test_25>:
10000254:	00000213          	li	x4,0
10000258:	00100093          	li	x1,1
1000025c:	00700113          	li	x2,7
10000260:	00209733          	sll	x14,x1,x2
10000264:	00070313          	mv	x6,x14
10000268:	00120213          	addi	x4,x4,1 # 1 <_start-0xfffffff>
1000026c:	00200293          	li	x5,2
10000270:	fe5214e3          	bne	x4,x5,10000258 <test_25+0x4>
10000274:	08000393          	li	x7,128
10000278:	01900193          	li	x3,25
1000027c:	2e731063          	bne	x6,x7,1000055c <fail>

10000280 <test_26>:
10000280:	00000213          	li	x4,0
10000284:	00100093          	li	x1,1
10000288:	00e00113          	li	x2,14
1000028c:	00209733          	sll	x14,x1,x2
10000290:	00000013          	nop
10000294:	00070313          	mv	x6,x14
10000298:	00120213          	addi	x4,x4,1 # 1 <_start-0xfffffff>
1000029c:	00200293          	li	x5,2
100002a0:	fe5212e3          	bne	x4,x5,10000284 <test_26+0x4>
100002a4:	000043b7          	lui	x7,0x4
100002a8:	01a00193          	li	x3,26
100002ac:	2a731863          	bne	x6,x7,1000055c <fail>

100002b0 <test_27>:
100002b0:	00000213          	li	x4,0
100002b4:	00100093          	li	x1,1
100002b8:	01f00113          	li	x2,31
100002bc:	00209733          	sll	x14,x1,x2
100002c0:	00000013          	nop
100002c4:	00000013          	nop
100002c8:	00070313          	mv	x6,x14
100002cc:	00120213          	addi	x4,x4,1 # 1 <_start-0xfffffff>
100002d0:	00200293          	li	x5,2
100002d4:	fe5210e3          	bne	x4,x5,100002b4 <test_27+0x4>
100002d8:	800003b7          	lui	x7,0x80000
100002dc:	01b00193          	li	x3,27
100002e0:	26731e63          	bne	x6,x7,1000055c <fail>

100002e4 <test_28>:
100002e4:	00000213          	li	x4,0
100002e8:	00100093          	li	x1,1
100002ec:	00700113          	li	x2,7
100002f0:	00209733          	sll	x14,x1,x2
100002f4:	00120213          	addi	x4,x4,1 # 1 <_start-0xfffffff>
100002f8:	00200293          	li	x5,2
100002fc:	fe5216e3          	bne	x4,x5,100002e8 <test_28+0x4>
10000300:	08000393          	li	x7,128
10000304:	01c00193          	li	x3,28
10000308:	24771a63          	bne	x14,x7,1000055c <fail>

1000030c <test_29>:
1000030c:	00000213          	li	x4,0
10000310:	00100093          	li	x1,1
10000314:	00e00113          	li	x2,14
10000318:	00000013          	nop
1000031c:	00209733          	sll	x14,x1,x2
10000320:	00120213          	addi	x4,x4,1 # 1 <_start-0xfffffff>
10000324:	00200293          	li	x5,2
10000328:	fe5214e3          	bne	x4,x5,10000310 <test_29+0x4>
1000032c:	000043b7          	lui	x7,0x4
10000330:	01d00193          	li	x3,29
10000334:	22771463          	bne	x14,x7,1000055c <fail>

10000338 <test_30>:
10000338:	00000213          	li	x4,0
1000033c:	00100093          	li	x1,1
10000340:	01f00113          	li	x2,31
10000344:	00000013          	nop
10000348:	00000013          	nop
1000034c:	00209733          	sll	x14,x1,x2
10000350:	00120213          	addi	x4,x4,1 # 1 <_start-0xfffffff>
10000354:	00200293          	li	x5,2
10000358:	fe5212e3          	bne	x4,x5,1000033c <test_30+0x4>
1000035c:	800003b7          	lui	x7,0x80000
10000360:	01e00193          	li	x3,30
10000364:	1e771c63          	bne	x14,x7,1000055c <fail>

10000368 <test_31>:
10000368:	00000213          	li	x4,0
1000036c:	00100093          	li	x1,1
10000370:	00000013          	nop
10000374:	00700113          	li	x2,7
10000378:	00209733          	sll	x14,x1,x2
1000037c:	00120213          	addi	x4,x4,1 # 1 <_start-0xfffffff>
10000380:	00200293          	li	x5,2
10000384:	fe5214e3          	bne	x4,x5,1000036c <test_31+0x4>
10000388:	08000393          	li	x7,128
1000038c:	01f00193          	li	x3,31
10000390:	1c771663          	bne	x14,x7,1000055c <fail>

10000394 <test_32>:
10000394:	00000213          	li	x4,0
10000398:	00100093          	li	x1,1
1000039c:	00000013          	nop
100003a0:	00e00113          	li	x2,14
100003a4:	00000013          	nop
100003a8:	00209733          	sll	x14,x1,x2
100003ac:	00120213          	addi	x4,x4,1 # 1 <_start-0xfffffff>
100003b0:	00200293          	li	x5,2
100003b4:	fe5212e3          	bne	x4,x5,10000398 <test_32+0x4>
100003b8:	000043b7          	lui	x7,0x4
100003bc:	02000193          	li	x3,32
100003c0:	18771e63          	bne	x14,x7,1000055c <fail>

100003c4 <test_33>:
100003c4:	00000213          	li	x4,0
100003c8:	00100093          	li	x1,1
100003cc:	00000013          	nop
100003d0:	00000013          	nop
100003d4:	01f00113          	li	x2,31
100003d8:	00209733          	sll	x14,x1,x2
100003dc:	00120213          	addi	x4,x4,1 # 1 <_start-0xfffffff>
100003e0:	00200293          	li	x5,2
100003e4:	fe5212e3          	bne	x4,x5,100003c8 <test_33+0x4>
100003e8:	800003b7          	lui	x7,0x80000
100003ec:	02100193          	li	x3,33
100003f0:	16771663          	bne	x14,x7,1000055c <fail>

100003f4 <test_34>:
100003f4:	00000213          	li	x4,0
100003f8:	00700113          	li	x2,7
100003fc:	00100093          	li	x1,1
10000400:	00209733          	sll	x14,x1,x2
10000404:	00120213          	addi	x4,x4,1 # 1 <_start-0xfffffff>
10000408:	00200293          	li	x5,2
1000040c:	fe5216e3          	bne	x4,x5,100003f8 <test_34+0x4>
10000410:	08000393          	li	x7,128
10000414:	02200193          	li	x3,34
10000418:	14771263          	bne	x14,x7,1000055c <fail>

1000041c <test_35>:
1000041c:	00000213          	li	x4,0
10000420:	00e00113          	li	x2,14
10000424:	00100093          	li	x1,1
10000428:	00000013          	nop
1000042c:	00209733          	sll	x14,x1,x2
10000430:	00120213          	addi	x4,x4,1 # 1 <_start-0xfffffff>
10000434:	00200293          	li	x5,2
10000438:	fe5214e3          	bne	x4,x5,10000420 <test_35+0x4>
1000043c:	000043b7          	lui	x7,0x4
10000440:	02300193          	li	x3,35
10000444:	10771c63          	bne	x14,x7,1000055c <fail>

10000448 <test_36>:
10000448:	00000213          	li	x4,0
1000044c:	01f00113          	li	x2,31
10000450:	00100093          	li	x1,1
10000454:	00000013          	nop
10000458:	00000013          	nop
1000045c:	00209733          	sll	x14,x1,x2
10000460:	00120213          	addi	x4,x4,1 # 1 <_start-0xfffffff>
10000464:	00200293          	li	x5,2
10000468:	fe5212e3          	bne	x4,x5,1000044c <test_36+0x4>
1000046c:	800003b7          	lui	x7,0x80000
10000470:	02400193          	li	x3,36
10000474:	0e771463          	bne	x14,x7,1000055c <fail>

10000478 <test_37>:
10000478:	00000213          	li	x4,0
1000047c:	00700113          	li	x2,7
10000480:	00000013          	nop
10000484:	00100093          	li	x1,1
10000488:	00209733          	sll	x14,x1,x2
1000048c:	00120213          	addi	x4,x4,1 # 1 <_start-0xfffffff>
10000490:	00200293          	li	x5,2
10000494:	fe5214e3          	bne	x4,x5,1000047c <test_37+0x4>
10000498:	08000393          	li	x7,128
1000049c:	02500193          	li	x3,37
100004a0:	0a771e63          	bne	x14,x7,1000055c <fail>

100004a4 <test_38>:
100004a4:	00000213          	li	x4,0
100004a8:	00e00113          	li	x2,14
100004ac:	00000013          	nop
100004b0:	00100093          	li	x1,1
100004b4:	00000013          	nop
100004b8:	00209733          	sll	x14,x1,x2
100004bc:	00120213          	addi	x4,x4,1 # 1 <_start-0xfffffff>
100004c0:	00200293          	li	x5,2
100004c4:	fe5212e3          	bne	x4,x5,100004a8 <test_38+0x4>
100004c8:	000043b7          	lui	x7,0x4
100004cc:	02600193          	li	x3,38
100004d0:	08771663          	bne	x14,x7,1000055c <fail>

100004d4 <test_39>:
100004d4:	00000213          	li	x4,0
100004d8:	01f00113          	li	x2,31
100004dc:	00000013          	nop
100004e0:	00000013          	nop
100004e4:	00100093          	li	x1,1
100004e8:	00209733          	sll	x14,x1,x2
100004ec:	00120213          	addi	x4,x4,1 # 1 <_start-0xfffffff>
100004f0:	00200293          	li	x5,2
100004f4:	fe5212e3          	bne	x4,x5,100004d8 <test_39+0x4>
100004f8:	800003b7          	lui	x7,0x80000
100004fc:	02700193          	li	x3,39
10000500:	04771e63          	bne	x14,x7,1000055c <fail>

10000504 <test_40>:
10000504:	00f00093          	li	x1,15
10000508:	00101133          	sll	x2,x0,x1
1000050c:	00000393          	li	x7,0
10000510:	02800193          	li	x3,40
10000514:	04711463          	bne	x2,x7,1000055c <fail>

10000518 <test_41>:
10000518:	02000093          	li	x1,32
1000051c:	00009133          	sll	x2,x1,x0
10000520:	02000393          	li	x7,32
10000524:	02900193          	li	x3,41
10000528:	02711a63          	bne	x2,x7,1000055c <fail>

1000052c <test_42>:
1000052c:	000010b3          	sll	x1,x0,x0
10000530:	00000393          	li	x7,0
10000534:	02a00193          	li	x3,42
10000538:	02709263          	bne	x1,x7,1000055c <fail>

1000053c <test_43>:
1000053c:	40000093          	li	x1,1024
10000540:	00001137          	lui	x2,0x1
10000544:	80010113          	addi	x2,x2,-2048 # 800 <_start-0xffff800>
10000548:	00209033          	sll	x0,x1,x2
1000054c:	00000393          	li	x7,0
10000550:	02b00193          	li	x3,43
10000554:	00701463          	bne	x0,x7,1000055c <fail>
10000558:	00301a63          	bne	x0,x3,1000056c <pass>

1000055c <fail>:
1000055c:	00119193          	slli	x3,x3,0x1
10000560:	0011e193          	ori	x3,x3,1
10000564:	51e19073          	csrw	0x51e,x3

10000568 <f>:
10000568:	0000006f          	j	10000568 <f>

1000056c <pass>:
1000056c:	00100193          	li	x3,1
10000570:	51e19073          	csrw	0x51e,x3

10000574 <p>:
10000574:	0000006f          	j	10000574 <p>
10000578:	c0001073          	unimp
	...

Disassembly of section .riscv.attributes:

00000000 <.riscv.attributes>:
   0:	1941                	addi	x18,x18,-16
   2:	0000                	unimp
   4:	7200                	flw	f8,32(x12)
   6:	7369                	lui	x6,0xffffa
   8:	01007663          	bgeu	x0,x16,14 <_start-0xfffffec>
   c:	0000000f          	fence	unknown,unknown
  10:	7205                	lui	x4,0xfffe1
  12:	3376                	fld	f6,376(x2)
  14:	6932                	flw	f18,12(x2)
  16:	7032                	flw	f0,44(x2)
  18:	0030                	addi	x12,x2,8
