
slt.elf:     file format elf32-littleriscv


Disassembly of section .text.init:

10000000 <_start>:
10000000:	0040006f          	j	10000004 <reset_vector>

10000004 <reset_vector>:
10000004:	51e05073          	csrwi	0x51e,0
10000008:	00000193          	li	x3,0

1000000c <test_2>:
1000000c:	00000093          	li	x1,0
10000010:	00000113          	li	x2,0
10000014:	0020a733          	slt	x14,x1,x2
10000018:	00000393          	li	x7,0
1000001c:	00200193          	li	x3,2
10000020:	4a771a63          	bne	x14,x7,100004d4 <fail>

10000024 <test_3>:
10000024:	00100093          	li	x1,1
10000028:	00100113          	li	x2,1
1000002c:	0020a733          	slt	x14,x1,x2
10000030:	00000393          	li	x7,0
10000034:	00300193          	li	x3,3
10000038:	48771e63          	bne	x14,x7,100004d4 <fail>

1000003c <test_4>:
1000003c:	00300093          	li	x1,3
10000040:	00700113          	li	x2,7
10000044:	0020a733          	slt	x14,x1,x2
10000048:	00100393          	li	x7,1
1000004c:	00400193          	li	x3,4
10000050:	48771263          	bne	x14,x7,100004d4 <fail>

10000054 <test_5>:
10000054:	00700093          	li	x1,7
10000058:	00300113          	li	x2,3
1000005c:	0020a733          	slt	x14,x1,x2
10000060:	00000393          	li	x7,0
10000064:	00500193          	li	x3,5
10000068:	46771663          	bne	x14,x7,100004d4 <fail>

1000006c <test_6>:
1000006c:	00000093          	li	x1,0
10000070:	ffff8137          	lui	x2,0xffff8
10000074:	0020a733          	slt	x14,x1,x2
10000078:	00000393          	li	x7,0
1000007c:	00600193          	li	x3,6
10000080:	44771a63          	bne	x14,x7,100004d4 <fail>

10000084 <test_7>:
10000084:	800000b7          	lui	x1,0x80000
10000088:	00000113          	li	x2,0
1000008c:	0020a733          	slt	x14,x1,x2
10000090:	00100393          	li	x7,1
10000094:	00700193          	li	x3,7
10000098:	42771e63          	bne	x14,x7,100004d4 <fail>

1000009c <test_8>:
1000009c:	800000b7          	lui	x1,0x80000
100000a0:	ffff8137          	lui	x2,0xffff8
100000a4:	0020a733          	slt	x14,x1,x2
100000a8:	00100393          	li	x7,1
100000ac:	00800193          	li	x3,8
100000b0:	42771263          	bne	x14,x7,100004d4 <fail>

100000b4 <test_9>:
100000b4:	00000093          	li	x1,0
100000b8:	00008137          	lui	x2,0x8
100000bc:	fff10113          	addi	x2,x2,-1 # 7fff <_start-0xfff8001>
100000c0:	0020a733          	slt	x14,x1,x2
100000c4:	00100393          	li	x7,1
100000c8:	00900193          	li	x3,9
100000cc:	40771463          	bne	x14,x7,100004d4 <fail>

100000d0 <test_10>:
100000d0:	800000b7          	lui	x1,0x80000
100000d4:	fff08093          	addi	x1,x1,-1 # 7fffffff <_end+0x6fffefff>
100000d8:	00000113          	li	x2,0
100000dc:	0020a733          	slt	x14,x1,x2
100000e0:	00000393          	li	x7,0
100000e4:	00a00193          	li	x3,10
100000e8:	3e771663          	bne	x14,x7,100004d4 <fail>

100000ec <test_11>:
100000ec:	800000b7          	lui	x1,0x80000
100000f0:	fff08093          	addi	x1,x1,-1 # 7fffffff <_end+0x6fffefff>
100000f4:	00008137          	lui	x2,0x8
100000f8:	fff10113          	addi	x2,x2,-1 # 7fff <_start-0xfff8001>
100000fc:	0020a733          	slt	x14,x1,x2
10000100:	00000393          	li	x7,0
10000104:	00b00193          	li	x3,11
10000108:	3c771663          	bne	x14,x7,100004d4 <fail>

1000010c <test_12>:
1000010c:	800000b7          	lui	x1,0x80000
10000110:	00008137          	lui	x2,0x8
10000114:	fff10113          	addi	x2,x2,-1 # 7fff <_start-0xfff8001>
10000118:	0020a733          	slt	x14,x1,x2
1000011c:	00100393          	li	x7,1
10000120:	00c00193          	li	x3,12
10000124:	3a771863          	bne	x14,x7,100004d4 <fail>

10000128 <test_13>:
10000128:	800000b7          	lui	x1,0x80000
1000012c:	fff08093          	addi	x1,x1,-1 # 7fffffff <_end+0x6fffefff>
10000130:	ffff8137          	lui	x2,0xffff8
10000134:	0020a733          	slt	x14,x1,x2
10000138:	00000393          	li	x7,0
1000013c:	00d00193          	li	x3,13
10000140:	38771a63          	bne	x14,x7,100004d4 <fail>

10000144 <test_14>:
10000144:	00000093          	li	x1,0
10000148:	fff00113          	li	x2,-1
1000014c:	0020a733          	slt	x14,x1,x2
10000150:	00000393          	li	x7,0
10000154:	00e00193          	li	x3,14
10000158:	36771e63          	bne	x14,x7,100004d4 <fail>

1000015c <test_15>:
1000015c:	fff00093          	li	x1,-1
10000160:	00100113          	li	x2,1
10000164:	0020a733          	slt	x14,x1,x2
10000168:	00100393          	li	x7,1
1000016c:	00f00193          	li	x3,15
10000170:	36771263          	bne	x14,x7,100004d4 <fail>

10000174 <test_16>:
10000174:	fff00093          	li	x1,-1
10000178:	fff00113          	li	x2,-1
1000017c:	0020a733          	slt	x14,x1,x2
10000180:	00000393          	li	x7,0
10000184:	01000193          	li	x3,16
10000188:	34771663          	bne	x14,x7,100004d4 <fail>

1000018c <test_17>:
1000018c:	00e00093          	li	x1,14
10000190:	00d00113          	li	x2,13
10000194:	0020a0b3          	slt	x1,x1,x2
10000198:	00000393          	li	x7,0
1000019c:	01100193          	li	x3,17
100001a0:	32709a63          	bne	x1,x7,100004d4 <fail>

100001a4 <test_18>:
100001a4:	00b00093          	li	x1,11
100001a8:	00d00113          	li	x2,13
100001ac:	0020a133          	slt	x2,x1,x2
100001b0:	00100393          	li	x7,1
100001b4:	01200193          	li	x3,18
100001b8:	30711e63          	bne	x2,x7,100004d4 <fail>

100001bc <test_19>:
100001bc:	00d00093          	li	x1,13
100001c0:	0010a0b3          	slt	x1,x1,x1
100001c4:	00000393          	li	x7,0
100001c8:	01300193          	li	x3,19
100001cc:	30709463          	bne	x1,x7,100004d4 <fail>

100001d0 <test_20>:
100001d0:	00000213          	li	x4,0
100001d4:	00b00093          	li	x1,11
100001d8:	00d00113          	li	x2,13
100001dc:	0020a733          	slt	x14,x1,x2
100001e0:	00070313          	mv	x6,x14
100001e4:	00120213          	addi	x4,x4,1 # 1 <_start-0xfffffff>
100001e8:	00200293          	li	x5,2
100001ec:	fe5214e3          	bne	x4,x5,100001d4 <test_20+0x4>
100001f0:	00100393          	li	x7,1
100001f4:	01400193          	li	x3,20
100001f8:	2c731e63          	bne	x6,x7,100004d4 <fail>

100001fc <test_21>:
100001fc:	00000213          	li	x4,0
10000200:	00e00093          	li	x1,14
10000204:	00d00113          	li	x2,13
10000208:	0020a733          	slt	x14,x1,x2
1000020c:	00000013          	nop
10000210:	00070313          	mv	x6,x14
10000214:	00120213          	addi	x4,x4,1 # 1 <_start-0xfffffff>
10000218:	00200293          	li	x5,2
1000021c:	fe5212e3          	bne	x4,x5,10000200 <test_21+0x4>
10000220:	00000393          	li	x7,0
10000224:	01500193          	li	x3,21
10000228:	2a731663          	bne	x6,x7,100004d4 <fail>

1000022c <test_22>:
1000022c:	00000213          	li	x4,0
10000230:	00c00093          	li	x1,12
10000234:	00d00113          	li	x2,13
10000238:	0020a733          	slt	x14,x1,x2
1000023c:	00000013          	nop
10000240:	00000013          	nop
10000244:	00070313          	mv	x6,x14
10000248:	00120213          	addi	x4,x4,1 # 1 <_start-0xfffffff>
1000024c:	00200293          	li	x5,2
10000250:	fe5210e3          	bne	x4,x5,10000230 <test_22+0x4>
10000254:	00100393          	li	x7,1
10000258:	01600193          	li	x3,22
1000025c:	26731c63          	bne	x6,x7,100004d4 <fail>

10000260 <test_23>:
10000260:	00000213          	li	x4,0
10000264:	00e00093          	li	x1,14
10000268:	00d00113          	li	x2,13
1000026c:	0020a733          	slt	x14,x1,x2
10000270:	00120213          	addi	x4,x4,1 # 1 <_start-0xfffffff>
10000274:	00200293          	li	x5,2
10000278:	fe5216e3          	bne	x4,x5,10000264 <test_23+0x4>
1000027c:	00000393          	li	x7,0
10000280:	01700193          	li	x3,23
10000284:	24771863          	bne	x14,x7,100004d4 <fail>

10000288 <test_24>:
10000288:	00000213          	li	x4,0
1000028c:	00b00093          	li	x1,11
10000290:	00d00113          	li	x2,13
10000294:	00000013          	nop
10000298:	0020a733          	slt	x14,x1,x2
1000029c:	00120213          	addi	x4,x4,1 # 1 <_start-0xfffffff>
100002a0:	00200293          	li	x5,2
100002a4:	fe5214e3          	bne	x4,x5,1000028c <test_24+0x4>
100002a8:	00100393          	li	x7,1
100002ac:	01800193          	li	x3,24
100002b0:	22771263          	bne	x14,x7,100004d4 <fail>

100002b4 <test_25>:
100002b4:	00000213          	li	x4,0
100002b8:	00f00093          	li	x1,15
100002bc:	00d00113          	li	x2,13
100002c0:	00000013          	nop
100002c4:	00000013          	nop
100002c8:	0020a733          	slt	x14,x1,x2
100002cc:	00120213          	addi	x4,x4,1 # 1 <_start-0xfffffff>
100002d0:	00200293          	li	x5,2
100002d4:	fe5212e3          	bne	x4,x5,100002b8 <test_25+0x4>
100002d8:	00000393          	li	x7,0
100002dc:	01900193          	li	x3,25
100002e0:	1e771a63          	bne	x14,x7,100004d4 <fail>

100002e4 <test_26>:
100002e4:	00000213          	li	x4,0
100002e8:	00a00093          	li	x1,10
100002ec:	00000013          	nop
100002f0:	00d00113          	li	x2,13
100002f4:	0020a733          	slt	x14,x1,x2
100002f8:	00120213          	addi	x4,x4,1 # 1 <_start-0xfffffff>
100002fc:	00200293          	li	x5,2
10000300:	fe5214e3          	bne	x4,x5,100002e8 <test_26+0x4>
10000304:	00100393          	li	x7,1
10000308:	01a00193          	li	x3,26
1000030c:	1c771463          	bne	x14,x7,100004d4 <fail>

10000310 <test_27>:
10000310:	00000213          	li	x4,0
10000314:	01000093          	li	x1,16
10000318:	00000013          	nop
1000031c:	00d00113          	li	x2,13
10000320:	00000013          	nop
10000324:	0020a733          	slt	x14,x1,x2
10000328:	00120213          	addi	x4,x4,1 # 1 <_start-0xfffffff>
1000032c:	00200293          	li	x5,2
10000330:	fe5212e3          	bne	x4,x5,10000314 <test_27+0x4>
10000334:	00000393          	li	x7,0
10000338:	01b00193          	li	x3,27
1000033c:	18771c63          	bne	x14,x7,100004d4 <fail>

10000340 <test_28>:
10000340:	00000213          	li	x4,0
10000344:	00900093          	li	x1,9
10000348:	00000013          	nop
1000034c:	00000013          	nop
10000350:	00d00113          	li	x2,13
10000354:	0020a733          	slt	x14,x1,x2
10000358:	00120213          	addi	x4,x4,1 # 1 <_start-0xfffffff>
1000035c:	00200293          	li	x5,2
10000360:	fe5212e3          	bne	x4,x5,10000344 <test_28+0x4>
10000364:	00100393          	li	x7,1
10000368:	01c00193          	li	x3,28
1000036c:	16771463          	bne	x14,x7,100004d4 <fail>

10000370 <test_29>:
10000370:	00000213          	li	x4,0
10000374:	00d00113          	li	x2,13
10000378:	01100093          	li	x1,17
1000037c:	0020a733          	slt	x14,x1,x2
10000380:	00120213          	addi	x4,x4,1 # 1 <_start-0xfffffff>
10000384:	00200293          	li	x5,2
10000388:	fe5216e3          	bne	x4,x5,10000374 <test_29+0x4>
1000038c:	00000393          	li	x7,0
10000390:	01d00193          	li	x3,29
10000394:	14771063          	bne	x14,x7,100004d4 <fail>

10000398 <test_30>:
10000398:	00000213          	li	x4,0
1000039c:	00d00113          	li	x2,13
100003a0:	00800093          	li	x1,8
100003a4:	00000013          	nop
100003a8:	0020a733          	slt	x14,x1,x2
100003ac:	00120213          	addi	x4,x4,1 # 1 <_start-0xfffffff>
100003b0:	00200293          	li	x5,2
100003b4:	fe5214e3          	bne	x4,x5,1000039c <test_30+0x4>
100003b8:	00100393          	li	x7,1
100003bc:	01e00193          	li	x3,30
100003c0:	10771a63          	bne	x14,x7,100004d4 <fail>

100003c4 <test_31>:
100003c4:	00000213          	li	x4,0
100003c8:	00d00113          	li	x2,13
100003cc:	01200093          	li	x1,18
100003d0:	00000013          	nop
100003d4:	00000013          	nop
100003d8:	0020a733          	slt	x14,x1,x2
100003dc:	00120213          	addi	x4,x4,1 # 1 <_start-0xfffffff>
100003e0:	00200293          	li	x5,2
100003e4:	fe5212e3          	bne	x4,x5,100003c8 <test_31+0x4>
100003e8:	00000393          	li	x7,0
100003ec:	01f00193          	li	x3,31
100003f0:	0e771263          	bne	x14,x7,100004d4 <fail>

100003f4 <test_32>:
100003f4:	00000213          	li	x4,0
100003f8:	00d00113          	li	x2,13
100003fc:	00000013          	nop
10000400:	00700093          	li	x1,7
10000404:	0020a733          	slt	x14,x1,x2
10000408:	00120213          	addi	x4,x4,1 # 1 <_start-0xfffffff>
1000040c:	00200293          	li	x5,2
10000410:	fe5214e3          	bne	x4,x5,100003f8 <test_32+0x4>
10000414:	00100393          	li	x7,1
10000418:	02000193          	li	x3,32
1000041c:	0a771c63          	bne	x14,x7,100004d4 <fail>

10000420 <test_33>:
10000420:	00000213          	li	x4,0
10000424:	00d00113          	li	x2,13
10000428:	00000013          	nop
1000042c:	01300093          	li	x1,19
10000430:	00000013          	nop
10000434:	0020a733          	slt	x14,x1,x2
10000438:	00120213          	addi	x4,x4,1 # 1 <_start-0xfffffff>
1000043c:	00200293          	li	x5,2
10000440:	fe5212e3          	bne	x4,x5,10000424 <test_33+0x4>
10000444:	00000393          	li	x7,0
10000448:	02100193          	li	x3,33
1000044c:	08771463          	bne	x14,x7,100004d4 <fail>

10000450 <test_34>:
10000450:	00000213          	li	x4,0
10000454:	00d00113          	li	x2,13
10000458:	00000013          	nop
1000045c:	00000013          	nop
10000460:	00600093          	li	x1,6
10000464:	0020a733          	slt	x14,x1,x2
10000468:	00120213          	addi	x4,x4,1 # 1 <_start-0xfffffff>
1000046c:	00200293          	li	x5,2
10000470:	fe5212e3          	bne	x4,x5,10000454 <test_34+0x4>
10000474:	00100393          	li	x7,1
10000478:	02200193          	li	x3,34
1000047c:	04771c63          	bne	x14,x7,100004d4 <fail>

10000480 <test_35>:
10000480:	fff00093          	li	x1,-1
10000484:	00102133          	sgtz	x2,x1
10000488:	00000393          	li	x7,0
1000048c:	02300193          	li	x3,35
10000490:	04711263          	bne	x2,x7,100004d4 <fail>

10000494 <test_36>:
10000494:	fff00093          	li	x1,-1
10000498:	0000a133          	sltz	x2,x1
1000049c:	00100393          	li	x7,1
100004a0:	02400193          	li	x3,36
100004a4:	02711863          	bne	x2,x7,100004d4 <fail>

100004a8 <test_37>:
100004a8:	000020b3          	sltz	x1,x0
100004ac:	00000393          	li	x7,0
100004b0:	02500193          	li	x3,37
100004b4:	02709063          	bne	x1,x7,100004d4 <fail>

100004b8 <test_38>:
100004b8:	01000093          	li	x1,16
100004bc:	01e00113          	li	x2,30
100004c0:	0020a033          	slt	x0,x1,x2
100004c4:	00000393          	li	x7,0
100004c8:	02600193          	li	x3,38
100004cc:	00701463          	bne	x0,x7,100004d4 <fail>
100004d0:	00301a63          	bne	x0,x3,100004e4 <pass>

100004d4 <fail>:
100004d4:	00119193          	slli	x3,x3,0x1
100004d8:	0011e193          	ori	x3,x3,1
100004dc:	51e19073          	csrw	0x51e,x3

100004e0 <f>:
100004e0:	0000006f          	j	100004e0 <f>

100004e4 <pass>:
100004e4:	00100193          	li	x3,1
100004e8:	51e19073          	csrw	0x51e,x3

100004ec <p>:
100004ec:	0000006f          	j	100004ec <p>
100004f0:	c0001073          	unimp
	...

Disassembly of section .riscv.attributes:

00000000 <.riscv.attributes>:
   0:	1941                	addi	x18,x18,-16
   2:	0000                	unimp
   4:	7200                	flw	f8,32(x12)
   6:	7369                	lui	x6,0xffffa
   8:	01007663          	bgeu	x0,x16,14 <_start-0xfffffec>
   c:	0000000f          	fence	unknown,unknown
  10:	7205                	lui	x4,0xfffe1
  12:	3376                	fld	f6,376(x2)
  14:	6932                	flw	f18,12(x2)
  16:	7032                	flw	f0,44(x2)
  18:	0030                	addi	x12,x2,8
