
sra.elf:     file format elf32-littleriscv


Disassembly of section .text.init:

10000000 <_start>:
10000000:	0040006f          	j	10000004 <reset_vector>

10000004 <reset_vector>:
10000004:	51e05073          	csrwi	0x51e,0
10000008:	00000193          	li	x3,0

1000000c <test_2>:
1000000c:	800000b7          	lui	x1,0x80000
10000010:	00000113          	li	x2,0
10000014:	4020d733          	sra	x14,x1,x2
10000018:	800003b7          	lui	x7,0x80000
1000001c:	00200193          	li	x3,2
10000020:	58771463          	bne	x14,x7,100005a8 <fail>

10000024 <test_3>:
10000024:	800000b7          	lui	x1,0x80000
10000028:	00100113          	li	x2,1
1000002c:	4020d733          	sra	x14,x1,x2
10000030:	c00003b7          	lui	x7,0xc0000
10000034:	00300193          	li	x3,3
10000038:	56771863          	bne	x14,x7,100005a8 <fail>

1000003c <test_4>:
1000003c:	800000b7          	lui	x1,0x80000
10000040:	00700113          	li	x2,7
10000044:	4020d733          	sra	x14,x1,x2
10000048:	ff0003b7          	lui	x7,0xff000
1000004c:	00400193          	li	x3,4
10000050:	54771c63          	bne	x14,x7,100005a8 <fail>

10000054 <test_5>:
10000054:	800000b7          	lui	x1,0x80000
10000058:	00e00113          	li	x2,14
1000005c:	4020d733          	sra	x14,x1,x2
10000060:	fffe03b7          	lui	x7,0xfffe0
10000064:	00500193          	li	x3,5
10000068:	54771063          	bne	x14,x7,100005a8 <fail>

1000006c <test_6>:
1000006c:	800000b7          	lui	x1,0x80000
10000070:	00108093          	addi	x1,x1,1 # 80000001 <_end+0x6ffff001>
10000074:	01f00113          	li	x2,31
10000078:	4020d733          	sra	x14,x1,x2
1000007c:	fff00393          	li	x7,-1
10000080:	00600193          	li	x3,6
10000084:	52771263          	bne	x14,x7,100005a8 <fail>

10000088 <test_7>:
10000088:	800000b7          	lui	x1,0x80000
1000008c:	fff08093          	addi	x1,x1,-1 # 7fffffff <_end+0x6fffefff>
10000090:	00000113          	li	x2,0
10000094:	4020d733          	sra	x14,x1,x2
10000098:	800003b7          	lui	x7,0x80000
1000009c:	fff38393          	addi	x7,x7,-1 # 7fffffff <_end+0x6fffefff>
100000a0:	00700193          	li	x3,7
100000a4:	50771263          	bne	x14,x7,100005a8 <fail>

100000a8 <test_8>:
100000a8:	800000b7          	lui	x1,0x80000
100000ac:	fff08093          	addi	x1,x1,-1 # 7fffffff <_end+0x6fffefff>
100000b0:	00100113          	li	x2,1
100000b4:	4020d733          	sra	x14,x1,x2
100000b8:	400003b7          	lui	x7,0x40000
100000bc:	fff38393          	addi	x7,x7,-1 # 3fffffff <_end+0x2fffefff>
100000c0:	00800193          	li	x3,8
100000c4:	4e771263          	bne	x14,x7,100005a8 <fail>

100000c8 <test_9>:
100000c8:	800000b7          	lui	x1,0x80000
100000cc:	fff08093          	addi	x1,x1,-1 # 7fffffff <_end+0x6fffefff>
100000d0:	00700113          	li	x2,7
100000d4:	4020d733          	sra	x14,x1,x2
100000d8:	010003b7          	lui	x7,0x1000
100000dc:	fff38393          	addi	x7,x7,-1 # ffffff <_start-0xf000001>
100000e0:	00900193          	li	x3,9
100000e4:	4c771263          	bne	x14,x7,100005a8 <fail>

100000e8 <test_10>:
100000e8:	800000b7          	lui	x1,0x80000
100000ec:	fff08093          	addi	x1,x1,-1 # 7fffffff <_end+0x6fffefff>
100000f0:	00e00113          	li	x2,14
100000f4:	4020d733          	sra	x14,x1,x2
100000f8:	000203b7          	lui	x7,0x20
100000fc:	fff38393          	addi	x7,x7,-1 # 1ffff <_start-0xffe0001>
10000100:	00a00193          	li	x3,10
10000104:	4a771263          	bne	x14,x7,100005a8 <fail>

10000108 <test_11>:
10000108:	800000b7          	lui	x1,0x80000
1000010c:	fff08093          	addi	x1,x1,-1 # 7fffffff <_end+0x6fffefff>
10000110:	01f00113          	li	x2,31
10000114:	4020d733          	sra	x14,x1,x2
10000118:	00000393          	li	x7,0
1000011c:	00b00193          	li	x3,11
10000120:	48771463          	bne	x14,x7,100005a8 <fail>

10000124 <test_12>:
10000124:	818180b7          	lui	x1,0x81818
10000128:	18108093          	addi	x1,x1,385 # 81818181 <_end+0x71817181>
1000012c:	00000113          	li	x2,0
10000130:	4020d733          	sra	x14,x1,x2
10000134:	818183b7          	lui	x7,0x81818
10000138:	18138393          	addi	x7,x7,385 # 81818181 <_end+0x71817181>
1000013c:	00c00193          	li	x3,12
10000140:	46771463          	bne	x14,x7,100005a8 <fail>

10000144 <test_13>:
10000144:	818180b7          	lui	x1,0x81818
10000148:	18108093          	addi	x1,x1,385 # 81818181 <_end+0x71817181>
1000014c:	00100113          	li	x2,1
10000150:	4020d733          	sra	x14,x1,x2
10000154:	c0c0c3b7          	lui	x7,0xc0c0c
10000158:	0c038393          	addi	x7,x7,192 # c0c0c0c0 <_end+0xb0c0b0c0>
1000015c:	00d00193          	li	x3,13
10000160:	44771463          	bne	x14,x7,100005a8 <fail>

10000164 <test_14>:
10000164:	818180b7          	lui	x1,0x81818
10000168:	18108093          	addi	x1,x1,385 # 81818181 <_end+0x71817181>
1000016c:	00700113          	li	x2,7
10000170:	4020d733          	sra	x14,x1,x2
10000174:	ff0303b7          	lui	x7,0xff030
10000178:	30338393          	addi	x7,x7,771 # ff030303 <_end+0xef02f303>
1000017c:	00e00193          	li	x3,14
10000180:	42771463          	bne	x14,x7,100005a8 <fail>

10000184 <test_15>:
10000184:	818180b7          	lui	x1,0x81818
10000188:	18108093          	addi	x1,x1,385 # 81818181 <_end+0x71817181>
1000018c:	00e00113          	li	x2,14
10000190:	4020d733          	sra	x14,x1,x2
10000194:	fffe03b7          	lui	x7,0xfffe0
10000198:	60638393          	addi	x7,x7,1542 # fffe0606 <_end+0xeffdf606>
1000019c:	00f00193          	li	x3,15
100001a0:	40771463          	bne	x14,x7,100005a8 <fail>

100001a4 <test_16>:
100001a4:	818180b7          	lui	x1,0x81818
100001a8:	18108093          	addi	x1,x1,385 # 81818181 <_end+0x71817181>
100001ac:	01f00113          	li	x2,31
100001b0:	4020d733          	sra	x14,x1,x2
100001b4:	fff00393          	li	x7,-1
100001b8:	01000193          	li	x3,16
100001bc:	3e771663          	bne	x14,x7,100005a8 <fail>

100001c0 <test_17>:
100001c0:	818180b7          	lui	x1,0x81818
100001c4:	18108093          	addi	x1,x1,385 # 81818181 <_end+0x71817181>
100001c8:	fc000113          	li	x2,-64
100001cc:	4020d733          	sra	x14,x1,x2
100001d0:	818183b7          	lui	x7,0x81818
100001d4:	18138393          	addi	x7,x7,385 # 81818181 <_end+0x71817181>
100001d8:	01100193          	li	x3,17
100001dc:	3c771663          	bne	x14,x7,100005a8 <fail>

100001e0 <test_18>:
100001e0:	818180b7          	lui	x1,0x81818
100001e4:	18108093          	addi	x1,x1,385 # 81818181 <_end+0x71817181>
100001e8:	fc100113          	li	x2,-63
100001ec:	4020d733          	sra	x14,x1,x2
100001f0:	c0c0c3b7          	lui	x7,0xc0c0c
100001f4:	0c038393          	addi	x7,x7,192 # c0c0c0c0 <_end+0xb0c0b0c0>
100001f8:	01200193          	li	x3,18
100001fc:	3a771663          	bne	x14,x7,100005a8 <fail>

10000200 <test_19>:
10000200:	818180b7          	lui	x1,0x81818
10000204:	18108093          	addi	x1,x1,385 # 81818181 <_end+0x71817181>
10000208:	fc700113          	li	x2,-57
1000020c:	4020d733          	sra	x14,x1,x2
10000210:	ff0303b7          	lui	x7,0xff030
10000214:	30338393          	addi	x7,x7,771 # ff030303 <_end+0xef02f303>
10000218:	01300193          	li	x3,19
1000021c:	38771663          	bne	x14,x7,100005a8 <fail>

10000220 <test_20>:
10000220:	818180b7          	lui	x1,0x81818
10000224:	18108093          	addi	x1,x1,385 # 81818181 <_end+0x71817181>
10000228:	fce00113          	li	x2,-50
1000022c:	4020d733          	sra	x14,x1,x2
10000230:	fffe03b7          	lui	x7,0xfffe0
10000234:	60638393          	addi	x7,x7,1542 # fffe0606 <_end+0xeffdf606>
10000238:	01400193          	li	x3,20
1000023c:	36771663          	bne	x14,x7,100005a8 <fail>

10000240 <test_21>:
10000240:	818180b7          	lui	x1,0x81818
10000244:	18108093          	addi	x1,x1,385 # 81818181 <_end+0x71817181>
10000248:	fff00113          	li	x2,-1
1000024c:	4020d733          	sra	x14,x1,x2
10000250:	fff00393          	li	x7,-1
10000254:	01500193          	li	x3,21
10000258:	34771863          	bne	x14,x7,100005a8 <fail>

1000025c <test_22>:
1000025c:	800000b7          	lui	x1,0x80000
10000260:	00700113          	li	x2,7
10000264:	4020d0b3          	sra	x1,x1,x2
10000268:	ff0003b7          	lui	x7,0xff000
1000026c:	01600193          	li	x3,22
10000270:	32709c63          	bne	x1,x7,100005a8 <fail>

10000274 <test_23>:
10000274:	800000b7          	lui	x1,0x80000
10000278:	00e00113          	li	x2,14
1000027c:	4020d133          	sra	x2,x1,x2
10000280:	fffe03b7          	lui	x7,0xfffe0
10000284:	01700193          	li	x3,23
10000288:	32711063          	bne	x2,x7,100005a8 <fail>

1000028c <test_24>:
1000028c:	00700093          	li	x1,7
10000290:	4010d0b3          	sra	x1,x1,x1
10000294:	00000393          	li	x7,0
10000298:	01800193          	li	x3,24
1000029c:	30709663          	bne	x1,x7,100005a8 <fail>

100002a0 <test_25>:
100002a0:	00000213          	li	x4,0
100002a4:	800000b7          	lui	x1,0x80000
100002a8:	00700113          	li	x2,7
100002ac:	4020d733          	sra	x14,x1,x2
100002b0:	00070313          	mv	x6,x14
100002b4:	00120213          	addi	x4,x4,1 # 1 <_start-0xfffffff>
100002b8:	00200293          	li	x5,2
100002bc:	fe5214e3          	bne	x4,x5,100002a4 <test_25+0x4>
100002c0:	ff0003b7          	lui	x7,0xff000
100002c4:	01900193          	li	x3,25
100002c8:	2e731063          	bne	x6,x7,100005a8 <fail>

100002cc <test_26>:
100002cc:	00000213          	li	x4,0
100002d0:	800000b7          	lui	x1,0x80000
100002d4:	00e00113          	li	x2,14
100002d8:	4020d733          	sra	x14,x1,x2
100002dc:	00000013          	nop
100002e0:	00070313          	mv	x6,x14
100002e4:	00120213          	addi	x4,x4,1 # 1 <_start-0xfffffff>
100002e8:	00200293          	li	x5,2
100002ec:	fe5212e3          	bne	x4,x5,100002d0 <test_26+0x4>
100002f0:	fffe03b7          	lui	x7,0xfffe0
100002f4:	01a00193          	li	x3,26
100002f8:	2a731863          	bne	x6,x7,100005a8 <fail>

100002fc <test_27>:
100002fc:	00000213          	li	x4,0
10000300:	800000b7          	lui	x1,0x80000
10000304:	01f00113          	li	x2,31
10000308:	4020d733          	sra	x14,x1,x2
1000030c:	00000013          	nop
10000310:	00000013          	nop
10000314:	00070313          	mv	x6,x14
10000318:	00120213          	addi	x4,x4,1 # 1 <_start-0xfffffff>
1000031c:	00200293          	li	x5,2
10000320:	fe5210e3          	bne	x4,x5,10000300 <test_27+0x4>
10000324:	fff00393          	li	x7,-1
10000328:	01b00193          	li	x3,27
1000032c:	26731e63          	bne	x6,x7,100005a8 <fail>

10000330 <test_28>:
10000330:	00000213          	li	x4,0
10000334:	800000b7          	lui	x1,0x80000
10000338:	00700113          	li	x2,7
1000033c:	4020d733          	sra	x14,x1,x2
10000340:	00120213          	addi	x4,x4,1 # 1 <_start-0xfffffff>
10000344:	00200293          	li	x5,2
10000348:	fe5216e3          	bne	x4,x5,10000334 <test_28+0x4>
1000034c:	ff0003b7          	lui	x7,0xff000
10000350:	01c00193          	li	x3,28
10000354:	24771a63          	bne	x14,x7,100005a8 <fail>

10000358 <test_29>:
10000358:	00000213          	li	x4,0
1000035c:	800000b7          	lui	x1,0x80000
10000360:	00e00113          	li	x2,14
10000364:	00000013          	nop
10000368:	4020d733          	sra	x14,x1,x2
1000036c:	00120213          	addi	x4,x4,1 # 1 <_start-0xfffffff>
10000370:	00200293          	li	x5,2
10000374:	fe5214e3          	bne	x4,x5,1000035c <test_29+0x4>
10000378:	fffe03b7          	lui	x7,0xfffe0
1000037c:	01d00193          	li	x3,29
10000380:	22771463          	bne	x14,x7,100005a8 <fail>

10000384 <test_30>:
10000384:	00000213          	li	x4,0
10000388:	800000b7          	lui	x1,0x80000
1000038c:	01f00113          	li	x2,31
10000390:	00000013          	nop
10000394:	00000013          	nop
10000398:	4020d733          	sra	x14,x1,x2
1000039c:	00120213          	addi	x4,x4,1 # 1 <_start-0xfffffff>
100003a0:	00200293          	li	x5,2
100003a4:	fe5212e3          	bne	x4,x5,10000388 <test_30+0x4>
100003a8:	fff00393          	li	x7,-1
100003ac:	01e00193          	li	x3,30
100003b0:	1e771c63          	bne	x14,x7,100005a8 <fail>

100003b4 <test_31>:
100003b4:	00000213          	li	x4,0
100003b8:	800000b7          	lui	x1,0x80000
100003bc:	00000013          	nop
100003c0:	00700113          	li	x2,7
100003c4:	4020d733          	sra	x14,x1,x2
100003c8:	00120213          	addi	x4,x4,1 # 1 <_start-0xfffffff>
100003cc:	00200293          	li	x5,2
100003d0:	fe5214e3          	bne	x4,x5,100003b8 <test_31+0x4>
100003d4:	ff0003b7          	lui	x7,0xff000
100003d8:	01f00193          	li	x3,31
100003dc:	1c771663          	bne	x14,x7,100005a8 <fail>

100003e0 <test_32>:
100003e0:	00000213          	li	x4,0
100003e4:	800000b7          	lui	x1,0x80000
100003e8:	00000013          	nop
100003ec:	00e00113          	li	x2,14
100003f0:	00000013          	nop
100003f4:	4020d733          	sra	x14,x1,x2
100003f8:	00120213          	addi	x4,x4,1 # 1 <_start-0xfffffff>
100003fc:	00200293          	li	x5,2
10000400:	fe5212e3          	bne	x4,x5,100003e4 <test_32+0x4>
10000404:	fffe03b7          	lui	x7,0xfffe0
10000408:	02000193          	li	x3,32
1000040c:	18771e63          	bne	x14,x7,100005a8 <fail>

10000410 <test_33>:
10000410:	00000213          	li	x4,0
10000414:	800000b7          	lui	x1,0x80000
10000418:	00000013          	nop
1000041c:	00000013          	nop
10000420:	01f00113          	li	x2,31
10000424:	4020d733          	sra	x14,x1,x2
10000428:	00120213          	addi	x4,x4,1 # 1 <_start-0xfffffff>
1000042c:	00200293          	li	x5,2
10000430:	fe5212e3          	bne	x4,x5,10000414 <test_33+0x4>
10000434:	fff00393          	li	x7,-1
10000438:	02100193          	li	x3,33
1000043c:	16771663          	bne	x14,x7,100005a8 <fail>

10000440 <test_34>:
10000440:	00000213          	li	x4,0
10000444:	00700113          	li	x2,7
10000448:	800000b7          	lui	x1,0x80000
1000044c:	4020d733          	sra	x14,x1,x2
10000450:	00120213          	addi	x4,x4,1 # 1 <_start-0xfffffff>
10000454:	00200293          	li	x5,2
10000458:	fe5216e3          	bne	x4,x5,10000444 <test_34+0x4>
1000045c:	ff0003b7          	lui	x7,0xff000
10000460:	02200193          	li	x3,34
10000464:	14771263          	bne	x14,x7,100005a8 <fail>

10000468 <test_35>:
10000468:	00000213          	li	x4,0
1000046c:	00e00113          	li	x2,14
10000470:	800000b7          	lui	x1,0x80000
10000474:	00000013          	nop
10000478:	4020d733          	sra	x14,x1,x2
1000047c:	00120213          	addi	x4,x4,1 # 1 <_start-0xfffffff>
10000480:	00200293          	li	x5,2
10000484:	fe5214e3          	bne	x4,x5,1000046c <test_35+0x4>
10000488:	fffe03b7          	lui	x7,0xfffe0
1000048c:	02300193          	li	x3,35
10000490:	10771c63          	bne	x14,x7,100005a8 <fail>

10000494 <test_36>:
10000494:	00000213          	li	x4,0
10000498:	01f00113          	li	x2,31
1000049c:	800000b7          	lui	x1,0x80000
100004a0:	00000013          	nop
100004a4:	00000013          	nop
100004a8:	4020d733          	sra	x14,x1,x2
100004ac:	00120213          	addi	x4,x4,1 # 1 <_start-0xfffffff>
100004b0:	00200293          	li	x5,2
100004b4:	fe5212e3          	bne	x4,x5,10000498 <test_36+0x4>
100004b8:	fff00393          	li	x7,-1
100004bc:	02400193          	li	x3,36
100004c0:	0e771463          	bne	x14,x7,100005a8 <fail>

100004c4 <test_37>:
100004c4:	00000213          	li	x4,0
100004c8:	00700113          	li	x2,7
100004cc:	00000013          	nop
100004d0:	800000b7          	lui	x1,0x80000
100004d4:	4020d733          	sra	x14,x1,x2
100004d8:	00120213          	addi	x4,x4,1 # 1 <_start-0xfffffff>
100004dc:	00200293          	li	x5,2
100004e0:	fe5214e3          	bne	x4,x5,100004c8 <test_37+0x4>
100004e4:	ff0003b7          	lui	x7,0xff000
100004e8:	02500193          	li	x3,37
100004ec:	0a771e63          	bne	x14,x7,100005a8 <fail>

100004f0 <test_38>:
100004f0:	00000213          	li	x4,0
100004f4:	00e00113          	li	x2,14
100004f8:	00000013          	nop
100004fc:	800000b7          	lui	x1,0x80000
10000500:	00000013          	nop
10000504:	4020d733          	sra	x14,x1,x2
10000508:	00120213          	addi	x4,x4,1 # 1 <_start-0xfffffff>
1000050c:	00200293          	li	x5,2
10000510:	fe5212e3          	bne	x4,x5,100004f4 <test_38+0x4>
10000514:	fffe03b7          	lui	x7,0xfffe0
10000518:	02600193          	li	x3,38
1000051c:	08771663          	bne	x14,x7,100005a8 <fail>

10000520 <test_39>:
10000520:	00000213          	li	x4,0
10000524:	01f00113          	li	x2,31
10000528:	00000013          	nop
1000052c:	00000013          	nop
10000530:	800000b7          	lui	x1,0x80000
10000534:	4020d733          	sra	x14,x1,x2
10000538:	00120213          	addi	x4,x4,1 # 1 <_start-0xfffffff>
1000053c:	00200293          	li	x5,2
10000540:	fe5212e3          	bne	x4,x5,10000524 <test_39+0x4>
10000544:	fff00393          	li	x7,-1
10000548:	02700193          	li	x3,39
1000054c:	04771e63          	bne	x14,x7,100005a8 <fail>

10000550 <test_40>:
10000550:	00f00093          	li	x1,15
10000554:	40105133          	sra	x2,x0,x1
10000558:	00000393          	li	x7,0
1000055c:	02800193          	li	x3,40
10000560:	04711463          	bne	x2,x7,100005a8 <fail>

10000564 <test_41>:
10000564:	02000093          	li	x1,32
10000568:	4000d133          	sra	x2,x1,x0
1000056c:	02000393          	li	x7,32
10000570:	02900193          	li	x3,41
10000574:	02711a63          	bne	x2,x7,100005a8 <fail>

10000578 <test_42>:
10000578:	400050b3          	sra	x1,x0,x0
1000057c:	00000393          	li	x7,0
10000580:	02a00193          	li	x3,42
10000584:	02709263          	bne	x1,x7,100005a8 <fail>

10000588 <test_43>:
10000588:	40000093          	li	x1,1024
1000058c:	00001137          	lui	x2,0x1
10000590:	80010113          	addi	x2,x2,-2048 # 800 <_start-0xffff800>
10000594:	4020d033          	sra	x0,x1,x2
10000598:	00000393          	li	x7,0
1000059c:	02b00193          	li	x3,43
100005a0:	00701463          	bne	x0,x7,100005a8 <fail>
100005a4:	00301a63          	bne	x0,x3,100005b8 <pass>

100005a8 <fail>:
100005a8:	00119193          	slli	x3,x3,0x1
100005ac:	0011e193          	ori	x3,x3,1
100005b0:	51e19073          	csrw	0x51e,x3

100005b4 <f>:
100005b4:	0000006f          	j	100005b4 <f>

100005b8 <pass>:
100005b8:	00100193          	li	x3,1
100005bc:	51e19073          	csrw	0x51e,x3

100005c0 <p>:
100005c0:	0000006f          	j	100005c0 <p>
100005c4:	c0001073          	unimp
	...

Disassembly of section .riscv.attributes:

00000000 <.riscv.attributes>:
   0:	1941                	addi	x18,x18,-16
   2:	0000                	unimp
   4:	7200                	flw	f8,32(x12)
   6:	7369                	lui	x6,0xffffa
   8:	01007663          	bgeu	x0,x16,14 <_start-0xfffffec>
   c:	0000000f          	fence	unknown,unknown
  10:	7205                	lui	x4,0xfffe1
  12:	3376                	fld	f6,376(x2)
  14:	6932                	flw	f18,12(x2)
  16:	7032                	flw	f0,44(x2)
  18:	0030                	addi	x12,x2,8
