
c_test.elf:     file format elf32-littleriscv


Disassembly of section .text:

10000000 <_start>:
10000000:	10010137          	lui	x2,0x10010
10000004:	ff010113          	addi	x2,x2,-16 # 1000fff0 <main+0xff70>
10000008:	078000ef          	jal	x1,10000080 <main>

1000000c <strlen>:
1000000c:	00054783          	lbu	x15,0(x10)
10000010:	02078063          	beqz	x15,10000030 <strlen+0x24>
10000014:	00000793          	li	x15,0
10000018:	00178793          	addi	x15,x15,1
1000001c:	00f50733          	add	x14,x10,x15
10000020:	00074703          	lbu	x14,0(x14)
10000024:	fe071ae3          	bnez	x14,10000018 <strlen+0xc>
10000028:	00078513          	mv	x10,x15
1000002c:	00008067          	ret
10000030:	00000793          	li	x15,0
10000034:	00078513          	mv	x10,x15
10000038:	00008067          	ret

1000003c <strcmp>:
1000003c:	00054703          	lbu	x14,0(x10)
10000040:	0005c783          	lbu	x15,0(x11)
10000044:	02e79663          	bne	x15,x14,10000070 <strcmp+0x34>
10000048:	02078863          	beqz	x15,10000078 <strcmp+0x3c>
1000004c:	00150513          	addi	x10,x10,1
10000050:	00158593          	addi	x11,x11,1
10000054:	0080006f          	j	1000005c <strcmp+0x20>
10000058:	02078063          	beqz	x15,10000078 <strcmp+0x3c>
1000005c:	00054703          	lbu	x14,0(x10)
10000060:	0005c783          	lbu	x15,0(x11)
10000064:	00150513          	addi	x10,x10,1
10000068:	00158593          	addi	x11,x11,1
1000006c:	fee786e3          	beq	x15,x14,10000058 <strcmp+0x1c>
10000070:	00100513          	li	x10,1
10000074:	00008067          	ret
10000078:	00000513          	li	x10,0
1000007c:	00008067          	ret

Disassembly of section .text.startup:

10000080 <main>:
10000080:	fe010113          	addi	x2,x2,-32
10000084:	00112e23          	sw	x1,28(x2)
10000088:	00000793          	li	x15,0
1000008c:	51e79073          	csrw	0x51e,x15
10000090:	00000717          	auipc	x14,0x0
10000094:	0ed70713          	addi	x14,x14,237 # 1000017d <main+0xfd>
10000098:	00d00793          	li	x15,13
1000009c:	80000637          	lui	x12,0x80000
100000a0:	00062683          	lw	x13,0(x12) # 80000000 <main+0x6fffff80>
100000a4:	0016f693          	andi	x13,x13,1
100000a8:	fe068ce3          	beqz	x13,100000a0 <main+0x20>
100000ac:	00f62423          	sw	x15,8(x12)
100000b0:	00170713          	addi	x14,x14,1
100000b4:	fff74783          	lbu	x15,-1(x14)
100000b8:	fe0794e3          	bnez	x15,100000a0 <main+0x20>
100000bc:	00010793          	mv	x15,x2
100000c0:	01010893          	addi	x17,x2,16
100000c4:	800006b7          	lui	x13,0x80000
100000c8:	00d00813          	li	x16,13
100000cc:	02000513          	li	x10,32
100000d0:	0006a703          	lw	x14,0(x13) # 80000000 <main+0x6fffff80>
100000d4:	00277713          	andi	x14,x14,2
100000d8:	fe070ce3          	beqz	x14,100000d0 <main+0x50>
100000dc:	0046a703          	lw	x14,4(x13)
100000e0:	0ff77593          	andi	x11,x14,255
100000e4:	03058863          	beq	x11,x16,10000114 <main+0x94>
100000e8:	0006a603          	lw	x12,0(x13)
100000ec:	00167613          	andi	x12,x12,1
100000f0:	fe060ce3          	beqz	x12,100000e8 <main+0x68>
100000f4:	0ff77713          	andi	x14,x14,255
100000f8:	00e6a423          	sw	x14,8(x13)
100000fc:	04a58263          	beq	x11,x10,10000140 <main+0xc0>
10000100:	00b78023          	sb	x11,0(x15)
10000104:	00178793          	addi	x15,x15,1
10000108:	fd1794e3          	bne	x15,x17,100000d0 <main+0x50>
1000010c:	000107a3          	sb	x0,15(x2)
10000110:	0340006f          	j	10000144 <main+0xc4>
10000114:	00000617          	auipc	x12,0x0
10000118:	07160613          	addi	x12,x12,113 # 10000185 <main+0x105>
1000011c:	00d00693          	li	x13,13
10000120:	800005b7          	lui	x11,0x80000
10000124:	0005a703          	lw	x14,0(x11) # 80000000 <main+0x6fffff80>
10000128:	00177713          	andi	x14,x14,1
1000012c:	fe070ce3          	beqz	x14,10000124 <main+0xa4>
10000130:	00d5a423          	sw	x13,8(x11)
10000134:	00160613          	addi	x12,x12,1
10000138:	fff64683          	lbu	x13,-1(x12)
1000013c:	fe0694e3          	bnez	x13,10000124 <main+0xa4>
10000140:	00078023          	sb	x0,0(x15)
10000144:	00000597          	auipc	x11,0x0
10000148:	04458593          	addi	x11,x11,68 # 10000188 <main+0x108>
1000014c:	00010513          	mv	x10,x2
10000150:	eedff0ef          	jal	x1,1000003c <strcmp>
10000154:	00051e63          	bnez	x10,10000170 <main+0xf0>
10000158:	00100793          	li	x15,1
1000015c:	51e79073          	csrw	0x51e,x15
10000160:	01c12083          	lw	x1,28(x2)
10000164:	00000513          	li	x10,0
10000168:	02010113          	addi	x2,x2,32
1000016c:	00008067          	ret
10000170:	00200793          	li	x15,2
10000174:	51e79073          	csrw	0x51e,x15
10000178:	fe9ff06f          	j	10000160 <main+0xe0>

Disassembly of section .rodata.str1.4:

1000017c <.rodata.str1.4>:
1000017c:	0a0d                	addi	x20,x20,3
1000017e:	3531                	jal	fffff8a <_start-0x76>
10000180:	3e31                	jal	ffffc9c <_start-0x364>
10000182:	0020                	addi	x8,x2,8
10000184:	0a0d                	addi	x20,x20,3
10000186:	0000                	unimp
10000188:	7978                	flw	f14,116(x10)
1000018a:	007a                	c.slli	x0,0x1e

Disassembly of section .comment:

00000000 <.comment>:
   0:	3a434347          	fmsub.d	f6,f6,f4,f7,rmm
   4:	2820                	fld	f8,80(x8)
   6:	69466953          	0x69466953
   a:	6576                	flw	f10,92(x2)
   c:	4720                	lw	x8,72(x14)
   e:	38204343          	fmadd.s	f6,f0,f2,f7,rmm
  12:	322e                	fld	f4,232(x2)
  14:	302e                	fld	f0,232(x2)
  16:	322d                	jal	fffff940 <main+0xeffff8c0>
  18:	3130                	fld	f12,96(x10)
  1a:	2e39                	jal	338 <_start-0xffffcc8>
  1c:	3530                	fld	f12,104(x10)
  1e:	332e                	fld	f6,232(x2)
  20:	2029                	jal	2a <_start-0xfffffd6>
  22:	2e38                	fld	f14,88(x12)
  24:	2e32                	fld	f28,264(x2)
  26:	0030                	addi	x12,x2,8

Disassembly of section .riscv.attributes:

00000000 <.riscv.attributes>:
   0:	1941                	addi	x18,x18,-16
   2:	0000                	unimp
   4:	7200                	flw	f8,32(x12)
   6:	7369                	lui	x6,0xffffa
   8:	01007663          	bgeu	x0,x16,14 <_start-0xfffffec>
   c:	0000000f          	fence	unknown,unknown
  10:	7205                	lui	x4,0xfffe1
  12:	3376                	fld	f6,376(x2)
  14:	6932                	flw	f18,12(x2)
  16:	7032                	flw	f0,44(x2)
  18:	0030                	addi	x12,x2,8
