
conv2D.elf:     file format elf32-littleriscv


Disassembly of section .text:

10000000 <_start>:
10000000:	10010137          	lui	x2,0x10010
10000004:	ff010113          	addi	x2,x2,-16 # 1000fff0 <ofm_sw+0xf2e8>
10000008:	0c1000ef          	jal	x1,100008c8 <main>

1000000c <run_and_time>:
1000000c:	ff010113          	addi	x2,x2,-16
10000010:	00112623          	sw	x1,12(x2)
10000014:	00812423          	sw	x8,8(x2)
10000018:	00912223          	sw	x9,4(x2)
1000001c:	80000437          	lui	x8,0x80000
10000020:	00042c23          	sw	x0,24(x8) # 80000018 <ofm_sw+0x6ffff310>
10000024:	000500e7          	jalr	x10
10000028:	01042483          	lw	x9,16(x8)
1000002c:	00001517          	auipc	x10,0x1
10000030:	97c50513          	addi	x10,x10,-1668 # 100009a8 <main+0xe0>
10000034:	01442403          	lw	x8,20(x8)
10000038:	784000ef          	jal	x1,100007bc <uwrite_int8s>
1000003c:	08000613          	li	x12,128
10000040:	00001597          	auipc	x11,0x1
10000044:	a4858593          	addi	x11,x11,-1464 # 10000a88 <buffer>
10000048:	00048513          	mv	x10,x9
1000004c:	6e4000ef          	jal	x1,10000730 <uint32_to_ascii_hex>
10000050:	76c000ef          	jal	x1,100007bc <uwrite_int8s>
10000054:	00001517          	auipc	x10,0x1
10000058:	96450513          	addi	x10,x10,-1692 # 100009b8 <main+0xf0>
1000005c:	760000ef          	jal	x1,100007bc <uwrite_int8s>
10000060:	00040513          	mv	x10,x8
10000064:	08000613          	li	x12,128
10000068:	00001597          	auipc	x11,0x1
1000006c:	a2058593          	addi	x11,x11,-1504 # 10000a88 <buffer>
10000070:	6c0000ef          	jal	x1,10000730 <uint32_to_ascii_hex>
10000074:	00812403          	lw	x8,8(x2)
10000078:	00c12083          	lw	x1,12(x2)
1000007c:	00412483          	lw	x9,4(x2)
10000080:	01010113          	addi	x2,x2,16
10000084:	7380006f          	j	100007bc <uwrite_int8s>

10000088 <conv2D_hw>:
10000088:	800007b7          	lui	x15,0x80000
1000008c:	00800713          	li	x14,8
10000090:	04e7a423          	sw	x14,72(x15) # 80000048 <ofm_sw+0x6ffff340>
10000094:	00001717          	auipc	x14,0x1
10000098:	9d070713          	addi	x14,x14,-1584 # 10000a64 <wt>
1000009c:	00275713          	srli	x14,x14,0x2
100000a0:	04e7a623          	sw	x14,76(x15)
100000a4:	00001717          	auipc	x14,0x1
100000a8:	a6470713          	addi	x14,x14,-1436 # 10000b08 <ifm>
100000ac:	00275713          	srli	x14,x14,0x2
100000b0:	04e7a823          	sw	x14,80(x15)
100000b4:	00001717          	auipc	x14,0x1
100000b8:	b5470713          	addi	x14,x14,-1196 # 10000c08 <ofm_hw>
100000bc:	00275713          	srli	x14,x14,0x2
100000c0:	04e7aa23          	sw	x14,84(x15)
100000c4:	00100713          	li	x14,1
100000c8:	04e7a023          	sw	x14,64(x15)
100000cc:	80000737          	lui	x14,0x80000
100000d0:	04472783          	lw	x15,68(x14) # 80000044 <ofm_sw+0x6ffff33c>
100000d4:	0017f793          	andi	x15,x15,1
100000d8:	fe078ce3          	beqz	x15,100000d0 <conv2D_hw+0x48>
100000dc:	00008067          	ret

100000e0 <times>:
100000e0:	41f55613          	srai	x12,x10,0x1f
100000e4:	41f5d693          	srai	x13,x11,0x1f
100000e8:	00a64733          	xor	x14,x12,x10
100000ec:	00b6c7b3          	xor	x15,x13,x11
100000f0:	40c70733          	sub	x14,x14,x12
100000f4:	40d787b3          	sub	x15,x15,x13
100000f8:	00000613          	li	x12,0
100000fc:	02058e63          	beqz	x11,10000138 <times+0x58>
10000100:	0017f693          	andi	x13,x15,1
10000104:	4017d793          	srai	x15,x15,0x1
10000108:	00068463          	beqz	x13,10000110 <times+0x30>
1000010c:	00e60633          	add	x12,x12,x14
10000110:	00171713          	slli	x14,x14,0x1
10000114:	fe0796e3          	bnez	x15,10000100 <times+0x20>
10000118:	00054863          	bltz	x10,10000128 <times+0x48>
1000011c:	0005c863          	bltz	x11,1000012c <times+0x4c>
10000120:	00060513          	mv	x10,x12
10000124:	00008067          	ret
10000128:	fe05cce3          	bltz	x11,10000120 <times+0x40>
1000012c:	40c00633          	neg	x12,x12
10000130:	00060513          	mv	x10,x12
10000134:	00008067          	ret
10000138:	fe0554e3          	bgez	x10,10000120 <times+0x40>
1000013c:	ff1ff06f          	j	1000012c <times+0x4c>

10000140 <conv2D_sw>:
10000140:	fb010113          	addi	x2,x2,-80
10000144:	04912223          	sw	x9,68(x2)
10000148:	05212023          	sw	x18,64(x2)
1000014c:	03512a23          	sw	x21,52(x2)
10000150:	03612823          	sw	x22,48(x2)
10000154:	03712623          	sw	x23,44(x2)
10000158:	03812423          	sw	x24,40(x2)
1000015c:	04112623          	sw	x1,76(x2)
10000160:	04812423          	sw	x8,72(x2)
10000164:	03312e23          	sw	x19,60(x2)
10000168:	03412c23          	sw	x20,56(x2)
1000016c:	03912223          	sw	x25,36(x2)
10000170:	03a12023          	sw	x26,32(x2)
10000174:	01b12e23          	sw	x27,28(x2)
10000178:	00001497          	auipc	x9,0x1
1000017c:	b9048493          	addi	x9,x9,-1136 # 10000d08 <ofm_sw>
10000180:	00012623          	sw	x0,12(x2)
10000184:	00000c13          	li	x24,0
10000188:	00001b17          	auipc	x22,0x1
1000018c:	900b0b13          	addi	x22,x22,-1792 # 10000a88 <buffer>
10000190:	00700913          	li	x18,7
10000194:	fff00b93          	li	x23,-1
10000198:	00300a93          	li	x21,3
1000019c:	00c12783          	lw	x15,12(x2)
100001a0:	0004ac83          	lw	x25,0(x9)
100001a4:	fffc0a13          	addi	x20,x24,-1
100001a8:	fff78993          	addi	x19,x15,-1
100001ac:	00001d17          	auipc	x26,0x1
100001b0:	8b8d0d13          	addi	x26,x26,-1864 # 10000a64 <wt>
100001b4:	00000d93          	li	x27,0
100001b8:	00000413          	li	x8,0
100001bc:	01ba0633          	add	x12,x20,x27
100001c0:	00898833          	add	x16,x19,x8
100001c4:	001d8d93          	addi	x27,x27,1
100001c8:	00000513          	li	x10,0
100001cc:	02c96463          	bltu	x18,x12,100001f4 <conv2D_sw+0xb4>
100001d0:	03780263          	beq	x16,x23,100001f4 <conv2D_sw+0xb4>
100001d4:	00381593          	slli	x11,x16,0x3
100001d8:	00c58633          	add	x12,x11,x12
100001dc:	00261613          	slli	x12,x12,0x2
100001e0:	00001797          	auipc	x15,0x1
100001e4:	92878793          	addi	x15,x15,-1752 # 10000b08 <ifm>
100001e8:	00c78633          	add	x12,x15,x12
100001ec:	01094463          	blt	x18,x16,100001f4 <conv2D_sw+0xb4>
100001f0:	00062503          	lw	x10,0(x12)
100001f4:	000d2583          	lw	x11,0(x26)
100001f8:	004d0d13          	addi	x26,x26,4
100001fc:	ee5ff0ef          	jal	x1,100000e0 <times>
10000200:	00ac8cb3          	add	x25,x25,x10
10000204:	0194a023          	sw	x25,0(x9)
10000208:	075d8863          	beq	x27,x21,10000278 <conv2D_sw+0x138>
1000020c:	fbab18e3          	bne	x22,x26,100001bc <conv2D_sw+0x7c>
10000210:	001c0c13          	addi	x24,x24,1
10000214:	00800793          	li	x15,8
10000218:	00fc1a63          	bne	x24,x15,1000022c <conv2D_sw+0xec>
1000021c:	00c12783          	lw	x15,12(x2)
10000220:	00000c13          	li	x24,0
10000224:	00178793          	addi	x15,x15,1
10000228:	00f12623          	sw	x15,12(x2)
1000022c:	00448493          	addi	x9,x9,4
10000230:	00001797          	auipc	x15,0x1
10000234:	bd878793          	addi	x15,x15,-1064 # 10000e08 <ofm_sw+0x100>
10000238:	f69792e3          	bne	x15,x9,1000019c <conv2D_sw+0x5c>
1000023c:	04c12083          	lw	x1,76(x2)
10000240:	04812403          	lw	x8,72(x2)
10000244:	04412483          	lw	x9,68(x2)
10000248:	04012903          	lw	x18,64(x2)
1000024c:	03c12983          	lw	x19,60(x2)
10000250:	03812a03          	lw	x20,56(x2)
10000254:	03412a83          	lw	x21,52(x2)
10000258:	03012b03          	lw	x22,48(x2)
1000025c:	02c12b83          	lw	x23,44(x2)
10000260:	02812c03          	lw	x24,40(x2)
10000264:	02412c83          	lw	x25,36(x2)
10000268:	02012d03          	lw	x26,32(x2)
1000026c:	01c12d83          	lw	x27,28(x2)
10000270:	05010113          	addi	x2,x2,80
10000274:	00008067          	ret
10000278:	00140413          	addi	x8,x8,1
1000027c:	00000d93          	li	x27,0
10000280:	f3ab1ee3          	bne	x22,x26,100001bc <conv2D_sw+0x7c>
10000284:	f8dff06f          	j	10000210 <conv2D_sw+0xd0>

10000288 <checksum>:
10000288:	f7010113          	addi	x2,x2,-144
1000028c:	08812423          	sw	x8,136(x2)
10000290:	08112623          	sw	x1,140(x2)
10000294:	10050713          	addi	x14,x10,256
10000298:	00000413          	li	x8,0
1000029c:	00052783          	lw	x15,0(x10)
100002a0:	00450513          	addi	x10,x10,4
100002a4:	00f40433          	add	x8,x8,x15
100002a8:	fee51ae3          	bne	x10,x14,1000029c <checksum+0x14>
100002ac:	00000517          	auipc	x10,0x0
100002b0:	72450513          	addi	x10,x10,1828 # 100009d0 <main+0x108>
100002b4:	508000ef          	jal	x1,100007bc <uwrite_int8s>
100002b8:	00010593          	mv	x11,x2
100002bc:	08000613          	li	x12,128
100002c0:	00040513          	mv	x10,x8
100002c4:	46c000ef          	jal	x1,10000730 <uint32_to_ascii_hex>
100002c8:	4f4000ef          	jal	x1,100007bc <uwrite_int8s>
100002cc:	08c12083          	lw	x1,140(x2)
100002d0:	08812403          	lw	x8,136(x2)
100002d4:	09010113          	addi	x2,x2,144
100002d8:	00008067          	ret

100002dc <check_result>:
100002dc:	ff010113          	addi	x2,x2,-16
100002e0:	00812423          	sw	x8,8(x2)
100002e4:	00112623          	sw	x1,12(x2)
100002e8:	00001717          	auipc	x14,0x1
100002ec:	a2070713          	addi	x14,x14,-1504 # 10000d08 <ofm_sw>
100002f0:	00001697          	auipc	x13,0x1
100002f4:	91868693          	addi	x13,x13,-1768 # 10000c08 <ofm_hw>
100002f8:	00001597          	auipc	x11,0x1
100002fc:	b1058593          	addi	x11,x11,-1264 # 10000e08 <ofm_sw+0x100>
10000300:	00000413          	li	x8,0
10000304:	00072783          	lw	x15,0(x14)
10000308:	0006a603          	lw	x12,0(x13)
1000030c:	00470713          	addi	x14,x14,4
10000310:	00468693          	addi	x13,x13,4
10000314:	40c787b3          	sub	x15,x15,x12
10000318:	00f037b3          	snez	x15,x15
1000031c:	00f40433          	add	x8,x8,x15
10000320:	feb712e3          	bne	x14,x11,10000304 <check_result+0x28>
10000324:	00000517          	auipc	x10,0x0
10000328:	6bc50513          	addi	x10,x10,1724 # 100009e0 <main+0x118>
1000032c:	490000ef          	jal	x1,100007bc <uwrite_int8s>
10000330:	08000613          	li	x12,128
10000334:	00000597          	auipc	x11,0x0
10000338:	75458593          	addi	x11,x11,1876 # 10000a88 <buffer>
1000033c:	00040513          	mv	x10,x8
10000340:	3f0000ef          	jal	x1,10000730 <uint32_to_ascii_hex>
10000344:	478000ef          	jal	x1,100007bc <uwrite_int8s>
10000348:	00000517          	auipc	x10,0x0
1000034c:	6ac50513          	addi	x10,x10,1708 # 100009f4 <main+0x12c>
10000350:	00040663          	beqz	x8,1000035c <check_result+0x80>
10000354:	00000517          	auipc	x10,0x0
10000358:	6ac50513          	addi	x10,x10,1708 # 10000a00 <main+0x138>
1000035c:	00812403          	lw	x8,8(x2)
10000360:	00c12083          	lw	x1,12(x2)
10000364:	01010113          	addi	x2,x2,16
10000368:	4540006f          	j	100007bc <uwrite_int8s>

1000036c <generate_matrices>:
1000036c:	00001817          	auipc	x16,0x1
10000370:	89c80813          	addi	x16,x16,-1892 # 10000c08 <ofm_hw>
10000374:	00000517          	auipc	x10,0x0
10000378:	79450513          	addi	x10,x10,1940 # 10000b08 <ifm>
1000037c:	00001897          	auipc	x17,0x1
10000380:	98c88893          	addi	x17,x17,-1652 # 10000d08 <ofm_sw>
10000384:	00080313          	mv	x6,x16
10000388:	00800593          	li	x11,8
1000038c:	00080613          	mv	x12,x16
10000390:	00088693          	mv	x13,x17
10000394:	00050713          	mv	x14,x10
10000398:	00000793          	li	x15,0
1000039c:	00f72023          	sw	x15,0(x14)
100003a0:	0006a023          	sw	x0,0(x13)
100003a4:	00062023          	sw	x0,0(x12)
100003a8:	00178793          	addi	x15,x15,1
100003ac:	00470713          	addi	x14,x14,4
100003b0:	00468693          	addi	x13,x13,4
100003b4:	00460613          	addi	x12,x12,4
100003b8:	feb792e3          	bne	x15,x11,1000039c <generate_matrices+0x30>
100003bc:	02050513          	addi	x10,x10,32
100003c0:	02088893          	addi	x17,x17,32
100003c4:	02080813          	addi	x16,x16,32
100003c8:	fc6512e3          	bne	x10,x6,1000038c <generate_matrices+0x20>
100003cc:	00008067          	ret

100003d0 <ascii_dec_to_uint8>:
100003d0:	00050693          	mv	x13,x10
100003d4:	00350893          	addi	x17,x10,3
100003d8:	00900813          	li	x16,9
100003dc:	00000513          	li	x10,0
100003e0:	0006c603          	lbu	x12,0(x13)
100003e4:	00351793          	slli	x15,x10,0x3
100003e8:	00078713          	mv	x14,x15
100003ec:	00151593          	slli	x11,x10,0x1
100003f0:	00b707b3          	add	x15,x14,x11
100003f4:	fd078793          	addi	x15,x15,-48
100003f8:	fd060713          	addi	x14,x12,-48
100003fc:	0ff77713          	andi	x14,x14,255
10000400:	00168693          	addi	x13,x13,1
10000404:	00c787b3          	add	x15,x15,x12
10000408:	00060863          	beqz	x12,10000418 <ascii_dec_to_uint8+0x48>
1000040c:	00e86463          	bltu	x16,x14,10000414 <ascii_dec_to_uint8+0x44>
10000410:	0ff7f513          	andi	x10,x15,255
10000414:	fd1696e3          	bne	x13,x17,100003e0 <ascii_dec_to_uint8+0x10>
10000418:	00008067          	ret

1000041c <ascii_dec_to_uint16>:
1000041c:	00050693          	mv	x13,x10
10000420:	00550893          	addi	x17,x10,5
10000424:	00900813          	li	x16,9
10000428:	00000513          	li	x10,0
1000042c:	0006c603          	lbu	x12,0(x13)
10000430:	00351793          	slli	x15,x10,0x3
10000434:	00078713          	mv	x14,x15
10000438:	00151593          	slli	x11,x10,0x1
1000043c:	00b707b3          	add	x15,x14,x11
10000440:	fd078793          	addi	x15,x15,-48
10000444:	fd060713          	addi	x14,x12,-48
10000448:	0ff77713          	andi	x14,x14,255
1000044c:	00168693          	addi	x13,x13,1
10000450:	00c787b3          	add	x15,x15,x12
10000454:	00060a63          	beqz	x12,10000468 <ascii_dec_to_uint16+0x4c>
10000458:	00e86663          	bltu	x16,x14,10000464 <ascii_dec_to_uint16+0x48>
1000045c:	01079513          	slli	x10,x15,0x10
10000460:	01055513          	srli	x10,x10,0x10
10000464:	fd1694e3          	bne	x13,x17,1000042c <ascii_dec_to_uint16+0x10>
10000468:	00008067          	ret

1000046c <ascii_dec_to_uint32>:
1000046c:	00050693          	mv	x13,x10
10000470:	00950893          	addi	x17,x10,9
10000474:	00900813          	li	x16,9
10000478:	00000513          	li	x10,0
1000047c:	0006c583          	lbu	x11,0(x13)
10000480:	00351713          	slli	x14,x10,0x3
10000484:	00151793          	slli	x15,x10,0x1
10000488:	fd058613          	addi	x12,x11,-48
1000048c:	00f707b3          	add	x15,x14,x15
10000490:	0ff67613          	andi	x12,x12,255
10000494:	00168693          	addi	x13,x13,1
10000498:	fd078793          	addi	x15,x15,-48
1000049c:	00058863          	beqz	x11,100004ac <ascii_dec_to_uint32+0x40>
100004a0:	00c86463          	bltu	x16,x12,100004a8 <ascii_dec_to_uint32+0x3c>
100004a4:	00f58533          	add	x10,x11,x15
100004a8:	fd169ae3          	bne	x13,x17,1000047c <ascii_dec_to_uint32+0x10>
100004ac:	00008067          	ret

100004b0 <ascii_hex_to_uint8>:
100004b0:	00250e13          	addi	x28,x10,2
100004b4:	00000613          	li	x12,0
100004b8:	00900313          	li	x6,9
100004bc:	00500893          	li	x17,5
100004c0:	00054783          	lbu	x15,0(x10)
100004c4:	00461693          	slli	x13,x12,0x4
100004c8:	00068713          	mv	x14,x13
100004cc:	fd078593          	addi	x11,x15,-48
100004d0:	f9f78813          	addi	x16,x15,-97
100004d4:	fd068693          	addi	x13,x13,-48
100004d8:	fa970713          	addi	x14,x14,-87
100004dc:	0ff5f593          	andi	x11,x11,255
100004e0:	00f686b3          	add	x13,x13,x15
100004e4:	0ff87813          	andi	x16,x16,255
100004e8:	00f70733          	add	x14,x14,x15
100004ec:	00078a63          	beqz	x15,10000500 <ascii_hex_to_uint8+0x50>
100004f0:	00b36c63          	bltu	x6,x11,10000508 <ascii_hex_to_uint8+0x58>
100004f4:	0ff6f613          	andi	x12,x13,255
100004f8:	00150513          	addi	x10,x10,1
100004fc:	fcae12e3          	bne	x28,x10,100004c0 <ascii_hex_to_uint8+0x10>
10000500:	00060513          	mv	x10,x12
10000504:	00008067          	ret
10000508:	0108e663          	bltu	x17,x16,10000514 <ascii_hex_to_uint8+0x64>
1000050c:	0ff77613          	andi	x12,x14,255
10000510:	fe9ff06f          	j	100004f8 <ascii_hex_to_uint8+0x48>
10000514:	fbf78713          	addi	x14,x15,-65
10000518:	0ff77713          	andi	x14,x14,255
1000051c:	fce8eee3          	bltu	x17,x14,100004f8 <ascii_hex_to_uint8+0x48>
10000520:	00461613          	slli	x12,x12,0x4
10000524:	fc978793          	addi	x15,x15,-55
10000528:	00f607b3          	add	x15,x12,x15
1000052c:	0ff7f613          	andi	x12,x15,255
10000530:	fc9ff06f          	j	100004f8 <ascii_hex_to_uint8+0x48>

10000534 <ascii_hex_to_uint16>:
10000534:	00450e13          	addi	x28,x10,4
10000538:	00000613          	li	x12,0
1000053c:	00900313          	li	x6,9
10000540:	00500893          	li	x17,5
10000544:	00054783          	lbu	x15,0(x10)
10000548:	00461693          	slli	x13,x12,0x4
1000054c:	00068713          	mv	x14,x13
10000550:	fd078593          	addi	x11,x15,-48
10000554:	f9f78813          	addi	x16,x15,-97
10000558:	fd068693          	addi	x13,x13,-48
1000055c:	fa970713          	addi	x14,x14,-87
10000560:	0ff5f593          	andi	x11,x11,255
10000564:	00f686b3          	add	x13,x13,x15
10000568:	0ff87813          	andi	x16,x16,255
1000056c:	00f70733          	add	x14,x14,x15
10000570:	00078c63          	beqz	x15,10000588 <ascii_hex_to_uint16+0x54>
10000574:	00b36e63          	bltu	x6,x11,10000590 <ascii_hex_to_uint16+0x5c>
10000578:	01069613          	slli	x12,x13,0x10
1000057c:	01065613          	srli	x12,x12,0x10
10000580:	00150513          	addi	x10,x10,1
10000584:	fcae10e3          	bne	x28,x10,10000544 <ascii_hex_to_uint16+0x10>
10000588:	00060513          	mv	x10,x12
1000058c:	00008067          	ret
10000590:	0108e863          	bltu	x17,x16,100005a0 <ascii_hex_to_uint16+0x6c>
10000594:	01071613          	slli	x12,x14,0x10
10000598:	01065613          	srli	x12,x12,0x10
1000059c:	fe5ff06f          	j	10000580 <ascii_hex_to_uint16+0x4c>
100005a0:	fbf78713          	addi	x14,x15,-65
100005a4:	0ff77713          	andi	x14,x14,255
100005a8:	fce8ece3          	bltu	x17,x14,10000580 <ascii_hex_to_uint16+0x4c>
100005ac:	00461613          	slli	x12,x12,0x4
100005b0:	fc978793          	addi	x15,x15,-55
100005b4:	00f607b3          	add	x15,x12,x15
100005b8:	01079613          	slli	x12,x15,0x10
100005bc:	01065613          	srli	x12,x12,0x10
100005c0:	fc1ff06f          	j	10000580 <ascii_hex_to_uint16+0x4c>

100005c4 <ascii_hex_to_uint32>:
100005c4:	00050613          	mv	x12,x10
100005c8:	00850e13          	addi	x28,x10,8
100005cc:	00900313          	li	x6,9
100005d0:	00000513          	li	x10,0
100005d4:	00500893          	li	x17,5
100005d8:	0100006f          	j	100005e8 <ascii_hex_to_uint32+0x24>
100005dc:	00d78533          	add	x10,x15,x13
100005e0:	00160613          	addi	x12,x12,1
100005e4:	04ce0063          	beq	x28,x12,10000624 <ascii_hex_to_uint32+0x60>
100005e8:	00064783          	lbu	x15,0(x12)
100005ec:	00451693          	slli	x13,x10,0x4
100005f0:	00068713          	mv	x14,x13
100005f4:	fd078593          	addi	x11,x15,-48
100005f8:	f9f78813          	addi	x16,x15,-97
100005fc:	0ff5f593          	andi	x11,x11,255
10000600:	fd068693          	addi	x13,x13,-48
10000604:	0ff87813          	andi	x16,x16,255
10000608:	fa970713          	addi	x14,x14,-87
1000060c:	00078c63          	beqz	x15,10000624 <ascii_hex_to_uint32+0x60>
10000610:	fcb376e3          	bgeu	x6,x11,100005dc <ascii_hex_to_uint32+0x18>
10000614:	0108ea63          	bltu	x17,x16,10000628 <ascii_hex_to_uint32+0x64>
10000618:	00e78533          	add	x10,x15,x14
1000061c:	00160613          	addi	x12,x12,1
10000620:	fcce14e3          	bne	x28,x12,100005e8 <ascii_hex_to_uint32+0x24>
10000624:	00008067          	ret
10000628:	fbf78713          	addi	x14,x15,-65
1000062c:	0ff77713          	andi	x14,x14,255
10000630:	fae8e8e3          	bltu	x17,x14,100005e0 <ascii_hex_to_uint32+0x1c>
10000634:	00451713          	slli	x14,x10,0x4
10000638:	fc978793          	addi	x15,x15,-55
1000063c:	00e78533          	add	x10,x15,x14
10000640:	fddff06f          	j	1000061c <ascii_hex_to_uint32+0x58>

10000644 <uint8_to_ascii_hex>:
10000644:	00100713          	li	x14,1
10000648:	00050793          	mv	x15,x10
1000064c:	06c77463          	bgeu	x14,x12,100006b4 <uint8_to_ascii_hex+0x70>
10000650:	40455713          	srai	x14,x10,0x4
10000654:	00900513          	li	x10,9
10000658:	0ff77693          	andi	x13,x14,255
1000065c:	02e55c63          	bge	x10,x14,10000694 <uint8_to_ascii_hex+0x50>
10000660:	05768693          	addi	x13,x13,87
10000664:	00d58023          	sb	x13,0(x11)
10000668:	00200713          	li	x14,2
1000066c:	04e60863          	beq	x12,x14,100006bc <uint8_to_ascii_hex+0x78>
10000670:	00f7f793          	andi	x15,x15,15
10000674:	00900693          	li	x13,9
10000678:	00258713          	addi	x14,x11,2
1000067c:	02f6e263          	bltu	x13,x15,100006a0 <uint8_to_ascii_hex+0x5c>
10000680:	03078793          	addi	x15,x15,48
10000684:	00f580a3          	sb	x15,1(x11)
10000688:	00070023          	sb	x0,0(x14)
1000068c:	00058513          	mv	x10,x11
10000690:	00008067          	ret
10000694:	03068693          	addi	x13,x13,48
10000698:	00d58023          	sb	x13,0(x11)
1000069c:	fcdff06f          	j	10000668 <uint8_to_ascii_hex+0x24>
100006a0:	05778793          	addi	x15,x15,87
100006a4:	00f580a3          	sb	x15,1(x11)
100006a8:	00070023          	sb	x0,0(x14)
100006ac:	00058513          	mv	x10,x11
100006b0:	00008067          	ret
100006b4:	00058713          	mv	x14,x11
100006b8:	fd1ff06f          	j	10000688 <uint8_to_ascii_hex+0x44>
100006bc:	00158713          	addi	x14,x11,1
100006c0:	fc9ff06f          	j	10000688 <uint8_to_ascii_hex+0x44>

100006c4 <uint16_to_ascii_hex>:
100006c4:	00000693          	li	x13,0
100006c8:	00900e93          	li	x29,9
100006cc:	00400e13          	li	x28,4
100006d0:	00168713          	addi	x14,x13,1
100006d4:	40e007b3          	neg	x15,x14
100006d8:	00279793          	slli	x15,x15,0x2
100006dc:	01078793          	addi	x15,x15,16
100006e0:	40f557b3          	sra	x15,x10,x15
100006e4:	00f7f793          	andi	x15,x15,15
100006e8:	00e58833          	add	x16,x11,x14
100006ec:	03078313          	addi	x6,x15,48
100006f0:	05778893          	addi	x17,x15,87
100006f4:	02c77663          	bgeu	x14,x12,10000720 <uint16_to_ascii_hex+0x5c>
100006f8:	00feee63          	bltu	x29,x15,10000714 <uint16_to_ascii_hex+0x50>
100006fc:	fe680fa3          	sb	x6,-1(x16)
10000700:	00070693          	mv	x13,x14
10000704:	fdc716e3          	bne	x14,x28,100006d0 <uint16_to_ascii_hex+0xc>
10000708:	00080023          	sb	x0,0(x16)
1000070c:	00058513          	mv	x10,x11
10000710:	00008067          	ret
10000714:	00e58833          	add	x16,x11,x14
10000718:	ff180fa3          	sb	x17,-1(x16)
1000071c:	fe5ff06f          	j	10000700 <uint16_to_ascii_hex+0x3c>
10000720:	00d58833          	add	x16,x11,x13
10000724:	00080023          	sb	x0,0(x16)
10000728:	00058513          	mv	x10,x11
1000072c:	00008067          	ret

10000730 <uint32_to_ascii_hex>:
10000730:	00000693          	li	x13,0
10000734:	00900e93          	li	x29,9
10000738:	00800e13          	li	x28,8
1000073c:	0100006f          	j	1000074c <uint32_to_ascii_hex+0x1c>
10000740:	fe680fa3          	sb	x6,-1(x16)
10000744:	00070693          	mv	x13,x14
10000748:	05c70063          	beq	x14,x28,10000788 <uint32_to_ascii_hex+0x58>
1000074c:	00168713          	addi	x14,x13,1
10000750:	40e007b3          	neg	x15,x14
10000754:	00279793          	slli	x15,x15,0x2
10000758:	02078793          	addi	x15,x15,32
1000075c:	00f557b3          	srl	x15,x10,x15
10000760:	00f7f793          	andi	x15,x15,15
10000764:	00e58833          	add	x16,x11,x14
10000768:	03078313          	addi	x6,x15,48
1000076c:	05778893          	addi	x17,x15,87
10000770:	02c77263          	bgeu	x14,x12,10000794 <uint32_to_ascii_hex+0x64>
10000774:	fcfef6e3          	bgeu	x29,x15,10000740 <uint32_to_ascii_hex+0x10>
10000778:	00e58833          	add	x16,x11,x14
1000077c:	ff180fa3          	sb	x17,-1(x16)
10000780:	00070693          	mv	x13,x14
10000784:	fdc714e3          	bne	x14,x28,1000074c <uint32_to_ascii_hex+0x1c>
10000788:	00080023          	sb	x0,0(x16)
1000078c:	00058513          	mv	x10,x11
10000790:	00008067          	ret
10000794:	00d58833          	add	x16,x11,x13
10000798:	00080023          	sb	x0,0(x16)
1000079c:	00058513          	mv	x10,x11
100007a0:	00008067          	ret

100007a4 <uwrite_int8>:
100007a4:	80000737          	lui	x14,0x80000
100007a8:	00072783          	lw	x15,0(x14) # 80000000 <ofm_sw+0x6ffff2f8>
100007ac:	0017f793          	andi	x15,x15,1
100007b0:	fe078ce3          	beqz	x15,100007a8 <uwrite_int8+0x4>
100007b4:	00a72423          	sw	x10,8(x14)
100007b8:	00008067          	ret

100007bc <uwrite_int8s>:
100007bc:	00054603          	lbu	x12,0(x10)
100007c0:	02060463          	beqz	x12,100007e8 <uwrite_int8s+0x2c>
100007c4:	00150693          	addi	x13,x10,1
100007c8:	80000737          	lui	x14,0x80000
100007cc:	00072783          	lw	x15,0(x14) # 80000000 <ofm_sw+0x6ffff2f8>
100007d0:	0017f793          	andi	x15,x15,1
100007d4:	fe078ce3          	beqz	x15,100007cc <uwrite_int8s+0x10>
100007d8:	00c72423          	sw	x12,8(x14)
100007dc:	00168693          	addi	x13,x13,1
100007e0:	fff6c603          	lbu	x12,-1(x13)
100007e4:	fe0614e3          	bnez	x12,100007cc <uwrite_int8s+0x10>
100007e8:	00008067          	ret

100007ec <uread_int8>:
100007ec:	80000737          	lui	x14,0x80000
100007f0:	00072783          	lw	x15,0(x14) # 80000000 <ofm_sw+0x6ffff2f8>
100007f4:	0027f793          	andi	x15,x15,2
100007f8:	fe078ce3          	beqz	x15,100007f0 <uread_int8+0x4>
100007fc:	00472683          	lw	x13,4(x14)
10000800:	00d00793          	li	x15,13
10000804:	80000737          	lui	x14,0x80000
10000808:	0ff6f513          	andi	x10,x13,255
1000080c:	00f50e63          	beq	x10,x15,10000828 <uread_int8+0x3c>
10000810:	00072783          	lw	x15,0(x14) # 80000000 <ofm_sw+0x6ffff2f8>
10000814:	0017f793          	andi	x15,x15,1
10000818:	fe078ce3          	beqz	x15,10000810 <uread_int8+0x24>
1000081c:	0ff6f693          	andi	x13,x13,255
10000820:	00d72423          	sw	x13,8(x14)
10000824:	00008067          	ret
10000828:	00000617          	auipc	x12,0x0
1000082c:	23960613          	addi	x12,x12,569 # 10000a61 <main+0x199>
10000830:	00d00693          	li	x13,13
10000834:	00072783          	lw	x15,0(x14)
10000838:	0017f793          	andi	x15,x15,1
1000083c:	fe078ce3          	beqz	x15,10000834 <uread_int8+0x48>
10000840:	00d72423          	sw	x13,8(x14)
10000844:	00160613          	addi	x12,x12,1
10000848:	fff64683          	lbu	x13,-1(x12)
1000084c:	fe0694e3          	bnez	x13,10000834 <uread_int8+0x48>
10000850:	00008067          	ret

10000854 <strcmp>:
10000854:	00054703          	lbu	x14,0(x10)
10000858:	0005c783          	lbu	x15,0(x11)
1000085c:	02e79663          	bne	x15,x14,10000888 <strcmp+0x34>
10000860:	02078863          	beqz	x15,10000890 <strcmp+0x3c>
10000864:	00150513          	addi	x10,x10,1
10000868:	00158593          	addi	x11,x11,1
1000086c:	0080006f          	j	10000874 <strcmp+0x20>
10000870:	02078063          	beqz	x15,10000890 <strcmp+0x3c>
10000874:	00054703          	lbu	x14,0(x10)
10000878:	0005c783          	lbu	x15,0(x11)
1000087c:	00150513          	addi	x10,x10,1
10000880:	00158593          	addi	x11,x11,1
10000884:	fee786e3          	beq	x15,x14,10000870 <strcmp+0x1c>
10000888:	00100513          	li	x10,1
1000088c:	00008067          	ret
10000890:	00000513          	li	x10,0
10000894:	00008067          	ret

10000898 <strlen>:
10000898:	00054783          	lbu	x15,0(x10)
1000089c:	02078063          	beqz	x15,100008bc <strlen+0x24>
100008a0:	00000793          	li	x15,0
100008a4:	00178793          	addi	x15,x15,1
100008a8:	00f50733          	add	x14,x10,x15
100008ac:	00074703          	lbu	x14,0(x14)
100008b0:	fe071ae3          	bnez	x14,100008a4 <strlen+0xc>
100008b4:	00078513          	mv	x10,x15
100008b8:	00008067          	ret
100008bc:	00000793          	li	x15,0
100008c0:	00078513          	mv	x10,x15
100008c4:	00008067          	ret

Disassembly of section .text.startup:

100008c8 <main>:
100008c8:	ff010113          	addi	x2,x2,-16
100008cc:	00000817          	auipc	x16,0x0
100008d0:	33c80813          	addi	x16,x16,828 # 10000c08 <ofm_hw>
100008d4:	00112623          	sw	x1,12(x2)
100008d8:	00000517          	auipc	x10,0x0
100008dc:	23050513          	addi	x10,x10,560 # 10000b08 <ifm>
100008e0:	00000897          	auipc	x17,0x0
100008e4:	42888893          	addi	x17,x17,1064 # 10000d08 <ofm_sw>
100008e8:	00080313          	mv	x6,x16
100008ec:	00800593          	li	x11,8
100008f0:	00080613          	mv	x12,x16
100008f4:	00088693          	mv	x13,x17
100008f8:	00050713          	mv	x14,x10
100008fc:	00000793          	li	x15,0
10000900:	00f72023          	sw	x15,0(x14)
10000904:	0006a023          	sw	x0,0(x13)
10000908:	00062023          	sw	x0,0(x12)
1000090c:	00178793          	addi	x15,x15,1
10000910:	00470713          	addi	x14,x14,4
10000914:	00468693          	addi	x13,x13,4
10000918:	00460613          	addi	x12,x12,4
1000091c:	feb792e3          	bne	x15,x11,10000900 <main+0x38>
10000920:	02050513          	addi	x10,x10,32
10000924:	02088893          	addi	x17,x17,32
10000928:	02080813          	addi	x16,x16,32
1000092c:	fc6512e3          	bne	x10,x6,100008f0 <main+0x28>
10000930:	00000517          	auipc	x10,0x0
10000934:	0dc50513          	addi	x10,x10,220 # 10000a0c <main+0x144>
10000938:	e85ff0ef          	jal	x1,100007bc <uwrite_int8s>
1000093c:	00000517          	auipc	x10,0x0
10000940:	80450513          	addi	x10,x10,-2044 # 10000140 <conv2D_sw>
10000944:	ec8ff0ef          	jal	x1,1000000c <run_and_time>
10000948:	00000517          	auipc	x10,0x0
1000094c:	3c050513          	addi	x10,x10,960 # 10000d08 <ofm_sw>
10000950:	939ff0ef          	jal	x1,10000288 <checksum>
10000954:	00000517          	auipc	x10,0x0
10000958:	0d050513          	addi	x10,x10,208 # 10000a24 <main+0x15c>
1000095c:	e61ff0ef          	jal	x1,100007bc <uwrite_int8s>
10000960:	fffff517          	auipc	x10,0xfffff
10000964:	72850513          	addi	x10,x10,1832 # 10000088 <conv2D_hw>
10000968:	ea4ff0ef          	jal	x1,1000000c <run_and_time>
1000096c:	00000517          	auipc	x10,0x0
10000970:	29c50513          	addi	x10,x10,668 # 10000c08 <ofm_hw>
10000974:	915ff0ef          	jal	x1,10000288 <checksum>
10000978:	00000517          	auipc	x10,0x0
1000097c:	0c450513          	addi	x10,x10,196 # 10000a3c <main+0x174>
10000980:	e3dff0ef          	jal	x1,100007bc <uwrite_int8s>
10000984:	959ff0ef          	jal	x1,100002dc <check_result>
10000988:	00000517          	auipc	x10,0x0
1000098c:	0cc50513          	addi	x10,x10,204 # 10000a54 <main+0x18c>
10000990:	c35ff0ef          	jal	x1,100005c4 <ascii_hex_to_uint32>
10000994:	000500e7          	jalr	x10
10000998:	00c12083          	lw	x1,12(x2)
1000099c:	00000513          	li	x10,0
100009a0:	01010113          	addi	x2,x2,16
100009a4:	00008067          	ret

Disassembly of section .rodata.str1.4:

100009a8 <.rodata.str1.4>:
100009a8:	0a0d                	addi	x20,x20,3
100009aa:	6c637943          	0x6c637943
100009ae:	2065                	jal	10000a56 <main+0x18e>
100009b0:	6e756f43          	fmadd.q	f30,f10,f7,f13,unknown
100009b4:	3a74                	fld	f13,240(x12)
100009b6:	0020                	addi	x8,x2,8
100009b8:	0a0d                	addi	x20,x20,3
100009ba:	6e49                	lui	x28,0x12
100009bc:	75727473          	csrrci	x8,0x757,4
100009c0:	6f697463          	bgeu	x18,x22,100010a8 <ofm_sw+0x3a0>
100009c4:	206e                	fld	f0,216(x2)
100009c6:	6e756f43          	fmadd.q	f30,f10,f7,f13,unknown
100009ca:	3a74                	fld	f13,240(x12)
100009cc:	0020                	addi	x8,x2,8
100009ce:	0000                	unimp
100009d0:	0a0d                	addi	x20,x20,3
100009d2:	63656843          	fmadd.d	f16,f10,f22,f12,unknown
100009d6:	6d75736b          	0x6d75736b
100009da:	203a                	fld	f0,392(x2)
100009dc:	0000                	unimp
100009de:	0000                	unimp
100009e0:	0a0d                	addi	x20,x20,3
100009e2:	754e                	flw	f10,240(x2)
100009e4:	206d                	jal	10000a8e <buffer+0x6>
100009e6:	696d                	lui	x18,0x1b
100009e8:	74616d73          	csrrsi	x26,0x746,2
100009ec:	73656863          	bltu	x10,x22,1000111c <ofm_sw+0x414>
100009f0:	203a                	fld	f0,392(x2)
100009f2:	0000                	unimp
100009f4:	0a0d                	addi	x20,x20,3
100009f6:	4150                	lw	x12,4(x10)
100009f8:	44455353          	0x44455353
100009fc:	0021                	c.nop	8
100009fe:	0000                	unimp
10000a00:	0a0d                	addi	x20,x20,3
10000a02:	4146                	lw	x2,80(x2)
10000a04:	4c49                	li	x24,18
10000a06:	4445                	li	x8,17
10000a08:	0021                	c.nop	8
10000a0a:	0000                	unimp
10000a0c:	0a0d                	addi	x20,x20,3
10000a0e:	3d3d                	jal	1000084c <uread_int8+0x60>
10000a10:	3d3d                	jal	1000084e <uread_int8+0x62>
10000a12:	633d                	lui	x6,0xf
10000a14:	32766e6f          	jal	x28,1006753a <ofm_sw+0x66832>
10000a18:	2044                	fld	f9,128(x8)
10000a1a:	3d3d5753          	0x3d3d5753
10000a1e:	3d3d                	jal	1000085c <strcmp+0x8>
10000a20:	003d                	c.nop	15
10000a22:	0000                	unimp
10000a24:	0a0d                	addi	x20,x20,3
10000a26:	3d3d                	jal	10000864 <strcmp+0x10>
10000a28:	3d3d                	jal	10000866 <strcmp+0x12>
10000a2a:	633d                	lui	x6,0xf
10000a2c:	32766e6f          	jal	x28,10067552 <ofm_sw+0x6684a>
10000a30:	2044                	fld	f9,128(x8)
10000a32:	5748                	lw	x10,44(x14)
10000a34:	3d3d                	jal	10000872 <strcmp+0x1e>
10000a36:	3d3d                	jal	10000874 <strcmp+0x20>
10000a38:	003d                	c.nop	15
10000a3a:	0000                	unimp
10000a3c:	0a0d                	addi	x20,x20,3
10000a3e:	3d3d                	jal	1000087c <strcmp+0x28>
10000a40:	3d3d                	jal	1000087e <strcmp+0x2a>
10000a42:	3d3d                	jal	10000880 <strcmp+0x2c>
10000a44:	3d3d                	jal	10000882 <strcmp+0x2e>
10000a46:	3d3d                	jal	10000884 <strcmp+0x30>
10000a48:	3d3d                	jal	10000886 <strcmp+0x32>
10000a4a:	3d3d                	jal	10000888 <strcmp+0x34>
10000a4c:	3d3d                	jal	1000088a <strcmp+0x36>
10000a4e:	3d3d                	jal	1000088c <strcmp+0x38>
10000a50:	003d                	c.nop	15
10000a52:	0000                	unimp
10000a54:	3034                	fld	f13,96(x8)
10000a56:	3030                	fld	f12,96(x8)
10000a58:	3030                	fld	f12,96(x8)
10000a5a:	3030                	fld	f12,96(x8)
10000a5c:	0000                	unimp
10000a5e:	0000                	unimp
10000a60:	0a0d                	addi	x20,x20,3
	...

Disassembly of section .data:

10000a64 <wt>:
10000a64:	0001                	nop
10000a66:	0000                	unimp
10000a68:	0002                	c.slli64	x0
10000a6a:	0000                	unimp
10000a6c:	0001                	nop
10000a6e:	0000                	unimp
10000a70:	0004                	0x4
10000a72:	0000                	unimp
10000a74:	0005                	c.nop	1
10000a76:	0000                	unimp
10000a78:	0004                	0x4
10000a7a:	0000                	unimp
10000a7c:	0001                	nop
10000a7e:	0000                	unimp
10000a80:	0002                	c.slli64	x0
10000a82:	0000                	unimp
10000a84:	0001                	nop
	...

Disassembly of section .bss:

10000a88 <buffer>:
	...

10000b08 <ifm>:
	...

10000c08 <ofm_hw>:
	...

10000d08 <ofm_sw>:
	...

Disassembly of section .comment:

00000000 <.comment>:
   0:	3a434347          	fmsub.d	f6,f6,f4,f7,rmm
   4:	2820                	fld	f8,80(x8)
   6:	69466953          	0x69466953
   a:	6576                	flw	f10,92(x2)
   c:	4720                	lw	x8,72(x14)
   e:	38204343          	fmadd.s	f6,f0,f2,f7,rmm
  12:	322e                	fld	f4,232(x2)
  14:	302e                	fld	f0,232(x2)
  16:	322d                	jal	fffff940 <ofm_sw+0xefffec38>
  18:	3130                	fld	f12,96(x10)
  1a:	2e39                	jal	338 <_start-0xffffcc8>
  1c:	3530                	fld	f12,104(x10)
  1e:	332e                	fld	f6,232(x2)
  20:	2029                	jal	2a <_start-0xfffffd6>
  22:	2e38                	fld	f14,88(x12)
  24:	2e32                	fld	f28,264(x2)
  26:	0030                	addi	x12,x2,8

Disassembly of section .riscv.attributes:

00000000 <.riscv.attributes>:
   0:	1941                	addi	x18,x18,-16
   2:	0000                	unimp
   4:	7200                	flw	f8,32(x12)
   6:	7369                	lui	x6,0xffffa
   8:	01007663          	bgeu	x0,x16,14 <_start-0xfffffec>
   c:	0000000f          	fence	unknown,unknown
  10:	7205                	lui	x4,0xfffe1
  12:	3376                	fld	f6,376(x2)
  14:	6932                	flw	f18,12(x2)
  16:	7032                	flw	f0,44(x2)
  18:	0030                	addi	x12,x2,8
